ARM GAS  C:\Users\29928\AppData\Local\Temp\cc0sajyY.s 			page 1


   1              		.syntax unified
   2              		.cpu cortex-m3
   3              		.fpu softvfp
   4              		.eabi_attribute 20, 1
   5              		.eabi_attribute 21, 1
   6              		.eabi_attribute 23, 3
   7              		.eabi_attribute 24, 1
   8              		.eabi_attribute 25, 1
   9              		.eabi_attribute 26, 1
  10              		.eabi_attribute 30, 1
  11              		.eabi_attribute 34, 1
  12              		.eabi_attribute 18, 4
  13              		.thumb
  14              		.syntax unified
  15              		.file	"cyfitter_cfg.c"
  16              		.text
  17              	.Ltext0:
  18              		.cfi_sections	.debug_frame
  19              		.section	.text.CyClockStartupError,"ax",%progbits
  20              		.align	2
  21              		.thumb
  22              		.thumb_func
  23              		.type	CyClockStartupError, %function
  24              	CyClockStartupError:
  25              	.LFB3:
  26              		.file 1 "Generated_Source\\PSoC5\\cyfitter_cfg.c"
   1:Generated_Source\PSoC5/cyfitter_cfg.c **** 
   2:Generated_Source\PSoC5/cyfitter_cfg.c **** /*******************************************************************************
   3:Generated_Source\PSoC5/cyfitter_cfg.c **** * File Name: cyfitter_cfg.c
   4:Generated_Source\PSoC5/cyfitter_cfg.c **** * 
   5:Generated_Source\PSoC5/cyfitter_cfg.c **** * PSoC Creator  4.4
   6:Generated_Source\PSoC5/cyfitter_cfg.c **** *
   7:Generated_Source\PSoC5/cyfitter_cfg.c **** * Description:
   8:Generated_Source\PSoC5/cyfitter_cfg.c **** * This file contains device initialization code.
   9:Generated_Source\PSoC5/cyfitter_cfg.c **** * Except for the user defined sections in CyClockStartupError(), this file should not be modified.
  10:Generated_Source\PSoC5/cyfitter_cfg.c **** * This file is automatically generated by PSoC Creator.
  11:Generated_Source\PSoC5/cyfitter_cfg.c **** *
  12:Generated_Source\PSoC5/cyfitter_cfg.c **** ********************************************************************************
  13:Generated_Source\PSoC5/cyfitter_cfg.c **** * Copyright (c) 2007-2020 Cypress Semiconductor.  All rights reserved.
  14:Generated_Source\PSoC5/cyfitter_cfg.c **** * You may use this file only in accordance with the license, terms, conditions, 
  15:Generated_Source\PSoC5/cyfitter_cfg.c **** * disclaimers, and limitations in the end user license agreement accompanying 
  16:Generated_Source\PSoC5/cyfitter_cfg.c **** * the software package with which this file was provided.
  17:Generated_Source\PSoC5/cyfitter_cfg.c **** ********************************************************************************/
  18:Generated_Source\PSoC5/cyfitter_cfg.c **** 
  19:Generated_Source\PSoC5/cyfitter_cfg.c **** #include <string.h>
  20:Generated_Source\PSoC5/cyfitter_cfg.c **** #include "cytypes.h"
  21:Generated_Source\PSoC5/cyfitter_cfg.c **** #include "cydevice_trm.h"
  22:Generated_Source\PSoC5/cyfitter_cfg.c **** #include "cyfitter.h"
  23:Generated_Source\PSoC5/cyfitter_cfg.c **** #include "CyLib.h"
  24:Generated_Source\PSoC5/cyfitter_cfg.c **** #include "cyfitter_cfg.h"
  25:Generated_Source\PSoC5/cyfitter_cfg.c **** #include "cyapicallbacks.h"
  26:Generated_Source\PSoC5/cyfitter_cfg.c **** 
  27:Generated_Source\PSoC5/cyfitter_cfg.c **** #define CY_NEED_CYCLOCKSTARTUPERROR 1
  28:Generated_Source\PSoC5/cyfitter_cfg.c **** 
  29:Generated_Source\PSoC5/cyfitter_cfg.c **** 
  30:Generated_Source\PSoC5/cyfitter_cfg.c **** #if defined(__GNUC__) || defined(__ARMCC_VERSION)
  31:Generated_Source\PSoC5/cyfitter_cfg.c ****     #define CYPACKED 
ARM GAS  C:\Users\29928\AppData\Local\Temp\cc0sajyY.s 			page 2


  32:Generated_Source\PSoC5/cyfitter_cfg.c ****     #define CYPACKED_ATTR __attribute__ ((packed))
  33:Generated_Source\PSoC5/cyfitter_cfg.c ****     #define CYALIGNED __attribute__ ((aligned))
  34:Generated_Source\PSoC5/cyfitter_cfg.c ****     #define CY_CFG_UNUSED __attribute__ ((unused))
  35:Generated_Source\PSoC5/cyfitter_cfg.c ****     #ifndef CY_CFG_SECTION
  36:Generated_Source\PSoC5/cyfitter_cfg.c ****         #define CY_CFG_SECTION __attribute__ ((section(".psocinit")))
  37:Generated_Source\PSoC5/cyfitter_cfg.c ****     #endif
  38:Generated_Source\PSoC5/cyfitter_cfg.c ****     
  39:Generated_Source\PSoC5/cyfitter_cfg.c ****     #if defined(__ARMCC_VERSION)
  40:Generated_Source\PSoC5/cyfitter_cfg.c ****         #define CY_CFG_MEMORY_BARRIER() __memory_changed()
  41:Generated_Source\PSoC5/cyfitter_cfg.c ****     #else
  42:Generated_Source\PSoC5/cyfitter_cfg.c ****         #define CY_CFG_MEMORY_BARRIER() __sync_synchronize()
  43:Generated_Source\PSoC5/cyfitter_cfg.c ****     #endif
  44:Generated_Source\PSoC5/cyfitter_cfg.c ****     
  45:Generated_Source\PSoC5/cyfitter_cfg.c **** #elif defined(__ICCARM__)
  46:Generated_Source\PSoC5/cyfitter_cfg.c ****     #include <intrinsics.h>
  47:Generated_Source\PSoC5/cyfitter_cfg.c **** 
  48:Generated_Source\PSoC5/cyfitter_cfg.c ****     #define CYPACKED __packed
  49:Generated_Source\PSoC5/cyfitter_cfg.c ****     #define CYPACKED_ATTR 
  50:Generated_Source\PSoC5/cyfitter_cfg.c ****     #define CYALIGNED _Pragma("data_alignment=4")
  51:Generated_Source\PSoC5/cyfitter_cfg.c ****     #define CY_CFG_UNUSED _Pragma("diag_suppress=Pe177")
  52:Generated_Source\PSoC5/cyfitter_cfg.c ****     #define CY_CFG_SECTION _Pragma("location=\".psocinit\"")
  53:Generated_Source\PSoC5/cyfitter_cfg.c ****     
  54:Generated_Source\PSoC5/cyfitter_cfg.c ****     #define CY_CFG_MEMORY_BARRIER() __DMB()
  55:Generated_Source\PSoC5/cyfitter_cfg.c ****     
  56:Generated_Source\PSoC5/cyfitter_cfg.c **** #else
  57:Generated_Source\PSoC5/cyfitter_cfg.c ****     #error Unsupported toolchain
  58:Generated_Source\PSoC5/cyfitter_cfg.c **** #endif
  59:Generated_Source\PSoC5/cyfitter_cfg.c **** 
  60:Generated_Source\PSoC5/cyfitter_cfg.c **** #ifndef CYCODE
  61:Generated_Source\PSoC5/cyfitter_cfg.c ****     #define CYCODE
  62:Generated_Source\PSoC5/cyfitter_cfg.c **** #endif
  63:Generated_Source\PSoC5/cyfitter_cfg.c **** #ifndef CYDATA
  64:Generated_Source\PSoC5/cyfitter_cfg.c ****     #define CYDATA
  65:Generated_Source\PSoC5/cyfitter_cfg.c **** #endif
  66:Generated_Source\PSoC5/cyfitter_cfg.c **** #ifndef CYFAR
  67:Generated_Source\PSoC5/cyfitter_cfg.c ****     #define CYFAR
  68:Generated_Source\PSoC5/cyfitter_cfg.c **** #endif
  69:Generated_Source\PSoC5/cyfitter_cfg.c **** #ifndef CYXDATA
  70:Generated_Source\PSoC5/cyfitter_cfg.c ****     #define CYXDATA
  71:Generated_Source\PSoC5/cyfitter_cfg.c **** #endif
  72:Generated_Source\PSoC5/cyfitter_cfg.c **** 
  73:Generated_Source\PSoC5/cyfitter_cfg.c **** 
  74:Generated_Source\PSoC5/cyfitter_cfg.c **** CY_CFG_UNUSED
  75:Generated_Source\PSoC5/cyfitter_cfg.c **** static void CYMEMZERO(void *s, size_t n);
  76:Generated_Source\PSoC5/cyfitter_cfg.c **** CY_CFG_UNUSED
  77:Generated_Source\PSoC5/cyfitter_cfg.c **** static void CYMEMZERO(void *s, size_t n)
  78:Generated_Source\PSoC5/cyfitter_cfg.c **** {
  79:Generated_Source\PSoC5/cyfitter_cfg.c **** 	(void)memset(s, 0, n);
  80:Generated_Source\PSoC5/cyfitter_cfg.c **** }
  81:Generated_Source\PSoC5/cyfitter_cfg.c **** CY_CFG_UNUSED
  82:Generated_Source\PSoC5/cyfitter_cfg.c **** static void CYCONFIGCPY(void *dest, const void *src, size_t n);
  83:Generated_Source\PSoC5/cyfitter_cfg.c **** CY_CFG_UNUSED
  84:Generated_Source\PSoC5/cyfitter_cfg.c **** static void CYCONFIGCPY(void *dest, const void *src, size_t n)
  85:Generated_Source\PSoC5/cyfitter_cfg.c **** {
  86:Generated_Source\PSoC5/cyfitter_cfg.c **** 	(void)memcpy(dest, src, n);
  87:Generated_Source\PSoC5/cyfitter_cfg.c **** }
  88:Generated_Source\PSoC5/cyfitter_cfg.c **** CY_CFG_UNUSED
ARM GAS  C:\Users\29928\AppData\Local\Temp\cc0sajyY.s 			page 3


  89:Generated_Source\PSoC5/cyfitter_cfg.c **** static void CYCONFIGCPYCODE(void *dest, const void *src, size_t n);
  90:Generated_Source\PSoC5/cyfitter_cfg.c **** CY_CFG_UNUSED
  91:Generated_Source\PSoC5/cyfitter_cfg.c **** static void CYCONFIGCPYCODE(void *dest, const void *src, size_t n)
  92:Generated_Source\PSoC5/cyfitter_cfg.c **** {
  93:Generated_Source\PSoC5/cyfitter_cfg.c **** 	(void)memcpy(dest, src, n);
  94:Generated_Source\PSoC5/cyfitter_cfg.c **** }
  95:Generated_Source\PSoC5/cyfitter_cfg.c **** 
  96:Generated_Source\PSoC5/cyfitter_cfg.c **** 
  97:Generated_Source\PSoC5/cyfitter_cfg.c **** 
  98:Generated_Source\PSoC5/cyfitter_cfg.c **** 
  99:Generated_Source\PSoC5/cyfitter_cfg.c **** /* Clock startup error codes                                                   */
 100:Generated_Source\PSoC5/cyfitter_cfg.c **** #define CYCLOCKSTART_NO_ERROR    0u
 101:Generated_Source\PSoC5/cyfitter_cfg.c **** #define CYCLOCKSTART_XTAL_ERROR  1u
 102:Generated_Source\PSoC5/cyfitter_cfg.c **** #define CYCLOCKSTART_32KHZ_ERROR 2u
 103:Generated_Source\PSoC5/cyfitter_cfg.c **** #define CYCLOCKSTART_PLL_ERROR   3u
 104:Generated_Source\PSoC5/cyfitter_cfg.c **** #define CYCLOCKSTART_FLL_ERROR   4u
 105:Generated_Source\PSoC5/cyfitter_cfg.c **** #define CYCLOCKSTART_WCO_ERROR   5u
 106:Generated_Source\PSoC5/cyfitter_cfg.c **** 
 107:Generated_Source\PSoC5/cyfitter_cfg.c **** 
 108:Generated_Source\PSoC5/cyfitter_cfg.c **** #ifdef CY_NEED_CYCLOCKSTARTUPERROR
 109:Generated_Source\PSoC5/cyfitter_cfg.c **** /*******************************************************************************
 110:Generated_Source\PSoC5/cyfitter_cfg.c **** * Function Name: CyClockStartupError
 111:Generated_Source\PSoC5/cyfitter_cfg.c **** ********************************************************************************
 112:Generated_Source\PSoC5/cyfitter_cfg.c **** * Summary:
 113:Generated_Source\PSoC5/cyfitter_cfg.c **** *  If an error is encountered during clock configuration (crystal startup error,
 114:Generated_Source\PSoC5/cyfitter_cfg.c **** *  PLL lock error, etc.), the system will end up here.  Unless reimplemented by
 115:Generated_Source\PSoC5/cyfitter_cfg.c **** *  the customer, this function will stop in an infinite loop.
 116:Generated_Source\PSoC5/cyfitter_cfg.c **** *
 117:Generated_Source\PSoC5/cyfitter_cfg.c **** * Parameters:
 118:Generated_Source\PSoC5/cyfitter_cfg.c **** *   void
 119:Generated_Source\PSoC5/cyfitter_cfg.c **** *
 120:Generated_Source\PSoC5/cyfitter_cfg.c **** * Return:
 121:Generated_Source\PSoC5/cyfitter_cfg.c **** *   void
 122:Generated_Source\PSoC5/cyfitter_cfg.c **** *
 123:Generated_Source\PSoC5/cyfitter_cfg.c **** *******************************************************************************/
 124:Generated_Source\PSoC5/cyfitter_cfg.c **** CY_CFG_UNUSED
 125:Generated_Source\PSoC5/cyfitter_cfg.c **** static void CyClockStartupError(uint8 errorCode);
 126:Generated_Source\PSoC5/cyfitter_cfg.c **** CY_CFG_UNUSED
 127:Generated_Source\PSoC5/cyfitter_cfg.c **** static void CyClockStartupError(uint8 errorCode)
 128:Generated_Source\PSoC5/cyfitter_cfg.c **** {
  27              		.loc 1 128 0
  28              		.cfi_startproc
  29              		@ Volatile: function does not return.
  30              		@ args = 0, pretend = 0, frame = 0
  31              		@ frame_needed = 0, uses_anonymous_args = 0
  32              		@ link register save eliminated.
  33              	.LVL0:
  34              	.L2:
  35 0000 FEE7     		b	.L2
  36              		.cfi_endproc
  37              	.LFE3:
  38              		.size	CyClockStartupError, .-CyClockStartupError
  39 0002 00BF     		.section	.text.cfg_write_bytes32,"ax",%progbits
  40              		.align	2
  41              		.thumb
  42              		.thumb_func
  43              		.type	cfg_write_bytes32, %function
ARM GAS  C:\Users\29928\AppData\Local\Temp\cc0sajyY.s 			page 4


  44              	cfg_write_bytes32:
  45              	.LFB4:
 129:Generated_Source\PSoC5/cyfitter_cfg.c ****     /* To remove the compiler warning if errorCode not used.                */
 130:Generated_Source\PSoC5/cyfitter_cfg.c ****     errorCode = errorCode;
 131:Generated_Source\PSoC5/cyfitter_cfg.c **** 
 132:Generated_Source\PSoC5/cyfitter_cfg.c ****     /* If we have a clock startup error (bad MHz crystal, PLL lock, etc.),  */
 133:Generated_Source\PSoC5/cyfitter_cfg.c ****     /* we will end up here to allow the customer to implement something to  */
 134:Generated_Source\PSoC5/cyfitter_cfg.c ****     /* deal with the clock condition.                                       */
 135:Generated_Source\PSoC5/cyfitter_cfg.c **** 
 136:Generated_Source\PSoC5/cyfitter_cfg.c **** #ifdef CY_CFG_CLOCK_STARTUP_ERROR_CALLBACK
 137:Generated_Source\PSoC5/cyfitter_cfg.c ****     CY_CFG_Clock_Startup_ErrorCallback();
 138:Generated_Source\PSoC5/cyfitter_cfg.c **** #else
 139:Generated_Source\PSoC5/cyfitter_cfg.c ****     /*  If not using CY_CFG_CLOCK_STARTUP_ERROR_CALLBACK, place your clock startup code here. */
 140:Generated_Source\PSoC5/cyfitter_cfg.c ****     /* `#START CyClockStartupError` */
 141:Generated_Source\PSoC5/cyfitter_cfg.c **** 
 142:Generated_Source\PSoC5/cyfitter_cfg.c **** 
 143:Generated_Source\PSoC5/cyfitter_cfg.c **** 
 144:Generated_Source\PSoC5/cyfitter_cfg.c ****     /* `#END` */
 145:Generated_Source\PSoC5/cyfitter_cfg.c **** 
 146:Generated_Source\PSoC5/cyfitter_cfg.c ****     while(1) {}
 147:Generated_Source\PSoC5/cyfitter_cfg.c **** #endif /* CY_CFG_CLOCK_STARTUP_ERROR_CALLBACK */
 148:Generated_Source\PSoC5/cyfitter_cfg.c **** }
 149:Generated_Source\PSoC5/cyfitter_cfg.c **** #endif
 150:Generated_Source\PSoC5/cyfitter_cfg.c **** 
 151:Generated_Source\PSoC5/cyfitter_cfg.c **** #define CY_CFG_BASE_ADDR_COUNT 43u
 152:Generated_Source\PSoC5/cyfitter_cfg.c **** CYPACKED typedef struct
 153:Generated_Source\PSoC5/cyfitter_cfg.c **** {
 154:Generated_Source\PSoC5/cyfitter_cfg.c **** 	uint8 offset;
 155:Generated_Source\PSoC5/cyfitter_cfg.c **** 	uint8 value;
 156:Generated_Source\PSoC5/cyfitter_cfg.c **** } CYPACKED_ATTR cy_cfg_addrvalue_t;
 157:Generated_Source\PSoC5/cyfitter_cfg.c **** 
 158:Generated_Source\PSoC5/cyfitter_cfg.c **** #define cy_cfg_addr_table ((const uint32 CYFAR *)0x48000000u)
 159:Generated_Source\PSoC5/cyfitter_cfg.c **** #define cy_cfg_data_table ((const cy_cfg_addrvalue_t CYFAR *)0x480000ACu)
 160:Generated_Source\PSoC5/cyfitter_cfg.c **** 
 161:Generated_Source\PSoC5/cyfitter_cfg.c **** /* UDB_0_3_1_CONFIG Address: CYDEV_UCFG_B0_P5_U1_BASE Size (bytes): 128 */
 162:Generated_Source\PSoC5/cyfitter_cfg.c **** #define BS_UDB_0_3_1_CONFIG_VAL ((const uint8 CYFAR *)0x48000E80u)
 163:Generated_Source\PSoC5/cyfitter_cfg.c **** 
 164:Generated_Source\PSoC5/cyfitter_cfg.c **** /* UDB_0_5_1_CONFIG Address: CYDEV_UCFG_B0_P7_U1_BASE Size (bytes): 128 */
 165:Generated_Source\PSoC5/cyfitter_cfg.c **** #define BS_UDB_0_5_1_CONFIG_VAL ((const uint8 CYFAR *)0x48000F00u)
 166:Generated_Source\PSoC5/cyfitter_cfg.c **** 
 167:Generated_Source\PSoC5/cyfitter_cfg.c **** /* IOPINS0_0 Address: CYREG_PRT0_DR Size (bytes): 10 */
 168:Generated_Source\PSoC5/cyfitter_cfg.c **** #define BS_IOPINS0_0_VAL ((const uint8 CYFAR *)0x48000F80u)
 169:Generated_Source\PSoC5/cyfitter_cfg.c **** 
 170:Generated_Source\PSoC5/cyfitter_cfg.c **** /* IOPINS0_7 Address: CYREG_PRT12_DR Size (bytes): 10 */
 171:Generated_Source\PSoC5/cyfitter_cfg.c **** #define BS_IOPINS0_7_VAL ((const uint8 CYFAR *)0x48000F8Cu)
 172:Generated_Source\PSoC5/cyfitter_cfg.c **** 
 173:Generated_Source\PSoC5/cyfitter_cfg.c **** /* IOPINS0_8 Address: CYREG_PRT15_DR Size (bytes): 10 */
 174:Generated_Source\PSoC5/cyfitter_cfg.c **** #define BS_IOPINS0_8_VAL ((const uint8 CYFAR *)0x48000F98u)
 175:Generated_Source\PSoC5/cyfitter_cfg.c **** 
 176:Generated_Source\PSoC5/cyfitter_cfg.c **** /* IOPINS0_1 Address: CYREG_PRT1_DR Size (bytes): 10 */
 177:Generated_Source\PSoC5/cyfitter_cfg.c **** #define BS_IOPINS0_1_VAL ((const uint8 CYFAR *)0x48000FA4u)
 178:Generated_Source\PSoC5/cyfitter_cfg.c **** 
 179:Generated_Source\PSoC5/cyfitter_cfg.c **** /* IOPINS0_2 Address: CYREG_PRT2_DM0 Size (bytes): 8 */
 180:Generated_Source\PSoC5/cyfitter_cfg.c **** #define BS_IOPINS0_2_VAL ((const uint8 CYFAR *)0x48000FB0u)
 181:Generated_Source\PSoC5/cyfitter_cfg.c **** 
 182:Generated_Source\PSoC5/cyfitter_cfg.c **** /* IOPINS0_3 Address: CYREG_PRT3_DM0 Size (bytes): 8 */
 183:Generated_Source\PSoC5/cyfitter_cfg.c **** #define BS_IOPINS0_3_VAL ((const uint8 CYFAR *)0x48000FB8u)
ARM GAS  C:\Users\29928\AppData\Local\Temp\cc0sajyY.s 			page 5


 184:Generated_Source\PSoC5/cyfitter_cfg.c **** 
 185:Generated_Source\PSoC5/cyfitter_cfg.c **** /* CYDEV_CLKDIST_ACFG0_CFG0 Address: CYREG_CLKDIST_ACFG0_CFG0 Size (bytes): 4 */
 186:Generated_Source\PSoC5/cyfitter_cfg.c **** #define BS_CYDEV_CLKDIST_ACFG0_CFG0_VAL ((const uint8 CYFAR *)0x48000FC0u)
 187:Generated_Source\PSoC5/cyfitter_cfg.c **** 
 188:Generated_Source\PSoC5/cyfitter_cfg.c **** /* PHUB_CFGMEM1 Address: CYREG_PHUB_CFGMEM1_CFG0 Size (bytes): 4 */
 189:Generated_Source\PSoC5/cyfitter_cfg.c **** #define BS_PHUB_CFGMEM1_VAL ((const uint8 CYFAR *)0x48000FC4u)
 190:Generated_Source\PSoC5/cyfitter_cfg.c **** 
 191:Generated_Source\PSoC5/cyfitter_cfg.c **** 
 192:Generated_Source\PSoC5/cyfitter_cfg.c **** /*******************************************************************************
 193:Generated_Source\PSoC5/cyfitter_cfg.c **** * Function Name: cfg_write_bytes32
 194:Generated_Source\PSoC5/cyfitter_cfg.c **** ********************************************************************************
 195:Generated_Source\PSoC5/cyfitter_cfg.c **** * Summary:
 196:Generated_Source\PSoC5/cyfitter_cfg.c **** *  This function is used for setting up the chip configuration areas that
 197:Generated_Source\PSoC5/cyfitter_cfg.c **** *  contain relatively sparse data.
 198:Generated_Source\PSoC5/cyfitter_cfg.c **** *
 199:Generated_Source\PSoC5/cyfitter_cfg.c **** * Parameters:
 200:Generated_Source\PSoC5/cyfitter_cfg.c **** *   void
 201:Generated_Source\PSoC5/cyfitter_cfg.c **** *
 202:Generated_Source\PSoC5/cyfitter_cfg.c **** * Return:
 203:Generated_Source\PSoC5/cyfitter_cfg.c **** *   void
 204:Generated_Source\PSoC5/cyfitter_cfg.c **** *
 205:Generated_Source\PSoC5/cyfitter_cfg.c **** *******************************************************************************/
 206:Generated_Source\PSoC5/cyfitter_cfg.c **** static void cfg_write_bytes32(const uint32 addr_table[], const cy_cfg_addrvalue_t data_table[]);
 207:Generated_Source\PSoC5/cyfitter_cfg.c **** static void cfg_write_bytes32(const uint32 addr_table[], const cy_cfg_addrvalue_t data_table[])
 208:Generated_Source\PSoC5/cyfitter_cfg.c **** {
  46              		.loc 1 208 0
  47              		.cfi_startproc
  48              		@ args = 0, pretend = 0, frame = 0
  49              		@ frame_needed = 0, uses_anonymous_args = 0
  50              		@ link register save eliminated.
  51              	.LVL1:
  52              		.loc 1 208 0
  53 0000 F0B4     		push	{r4, r5, r6, r7}
  54              		.cfi_def_cfa_offset 16
  55              		.cfi_offset 4, -16
  56              		.cfi_offset 5, -12
  57              		.cfi_offset 6, -8
  58              		.cfi_offset 7, -4
  59              	.LVL2:
 209:Generated_Source\PSoC5/cyfitter_cfg.c **** 	/* For 32-bit little-endian architectures */
 210:Generated_Source\PSoC5/cyfitter_cfg.c **** 	uint32 i, j = 0u;
  60              		.loc 1 210 0
  61 0002 0022     		movs	r2, #0
 211:Generated_Source\PSoC5/cyfitter_cfg.c **** 	for (i = 0u; i < CY_CFG_BASE_ADDR_COUNT; i++)
  62              		.loc 1 211 0
  63 0004 1746     		mov	r7, r2
  64 0006 11E0     		b	.L4
  65              	.LVL3:
  66              	.L7:
  67              	.LBB2:
 212:Generated_Source\PSoC5/cyfitter_cfg.c **** 	{
 213:Generated_Source\PSoC5/cyfitter_cfg.c **** 		uint32 baseAddr = addr_table[i];
  68              		.loc 1 213 0
  69 0008 50F82760 		ldr	r6, [r0, r7, lsl #2]
  70              	.LVL4:
 214:Generated_Source\PSoC5/cyfitter_cfg.c **** 		uint8 count = (uint8)baseAddr;
  71              		.loc 1 214 0
ARM GAS  C:\Users\29928\AppData\Local\Temp\cc0sajyY.s 			page 6


  72 000c F3B2     		uxtb	r3, r6
  73              	.LVL5:
 215:Generated_Source\PSoC5/cyfitter_cfg.c **** 		baseAddr &= 0xFFFFFF00u;
  74              		.loc 1 215 0
  75 000e 26F0FF06 		bic	r6, r6, #255
  76              	.LVL6:
 216:Generated_Source\PSoC5/cyfitter_cfg.c **** 		while (count != 0u)
  77              		.loc 1 216 0
  78 0012 08E0     		b	.L5
  79              	.L6:
 217:Generated_Source\PSoC5/cyfitter_cfg.c **** 		{
 218:Generated_Source\PSoC5/cyfitter_cfg.c **** 			CY_SET_REG8((void *)(baseAddr + data_table[j].offset), data_table[j].value);
  80              		.loc 1 218 0
  81 0014 01EB4205 		add	r5, r1, r2, lsl #1
  82 0018 11F81240 		ldrb	r4, [r1, r2, lsl #1]	@ zero_extendqisi2
  83 001c 6D78     		ldrb	r5, [r5, #1]	@ zero_extendqisi2
  84 001e A555     		strb	r5, [r4, r6]
 219:Generated_Source\PSoC5/cyfitter_cfg.c **** 			j++;
  85              		.loc 1 219 0
  86 0020 0132     		adds	r2, r2, #1
  87              	.LVL7:
 220:Generated_Source\PSoC5/cyfitter_cfg.c **** 			count--;
  88              		.loc 1 220 0
  89 0022 013B     		subs	r3, r3, #1
  90              	.LVL8:
  91 0024 DBB2     		uxtb	r3, r3
  92              	.LVL9:
  93              	.L5:
 216:Generated_Source\PSoC5/cyfitter_cfg.c **** 		{
  94              		.loc 1 216 0
  95 0026 002B     		cmp	r3, #0
  96 0028 F4D1     		bne	.L6
  97              	.LBE2:
 211:Generated_Source\PSoC5/cyfitter_cfg.c **** 	{
  98              		.loc 1 211 0 discriminator 2
  99 002a 0137     		adds	r7, r7, #1
 100              	.LVL10:
 101              	.L4:
 211:Generated_Source\PSoC5/cyfitter_cfg.c **** 	{
 102              		.loc 1 211 0 is_stmt 0 discriminator 1
 103 002c 2A2F     		cmp	r7, #42
 104 002e EBD9     		bls	.L7
 221:Generated_Source\PSoC5/cyfitter_cfg.c **** 		}
 222:Generated_Source\PSoC5/cyfitter_cfg.c **** 	}
 223:Generated_Source\PSoC5/cyfitter_cfg.c **** }
 105              		.loc 1 223 0 is_stmt 1
 106 0030 F0BC     		pop	{r4, r5, r6, r7}
 107              		.cfi_restore 7
 108              		.cfi_restore 6
 109              		.cfi_restore 5
 110              		.cfi_restore 4
 111              		.cfi_def_cfa_offset 0
 112              	.LVL11:
 113 0032 7047     		bx	lr
 114              		.cfi_endproc
 115              	.LFE4:
 116              		.size	cfg_write_bytes32, .-cfg_write_bytes32
ARM GAS  C:\Users\29928\AppData\Local\Temp\cc0sajyY.s 			page 7


 117              		.section	.text.CYMEMZERO,"ax",%progbits
 118              		.align	2
 119              		.thumb
 120              		.thumb_func
 121              		.type	CYMEMZERO, %function
 122              	CYMEMZERO:
 123              	.LFB0:
  78:Generated_Source\PSoC5/cyfitter_cfg.c **** 	(void)memset(s, 0, n);
 124              		.loc 1 78 0
 125              		.cfi_startproc
 126              		@ args = 0, pretend = 0, frame = 0
 127              		@ frame_needed = 0, uses_anonymous_args = 0
 128              	.LVL12:
 129 0000 08B5     		push	{r3, lr}
 130              		.cfi_def_cfa_offset 8
 131              		.cfi_offset 3, -8
 132              		.cfi_offset 14, -4
  79:Generated_Source\PSoC5/cyfitter_cfg.c **** }
 133              		.loc 1 79 0
 134 0002 0A46     		mov	r2, r1
 135 0004 0021     		movs	r1, #0
 136              	.LVL13:
 137 0006 FFF7FEFF 		bl	memset
 138              	.LVL14:
 139 000a 08BD     		pop	{r3, pc}
 140              		.cfi_endproc
 141              	.LFE0:
 142              		.size	CYMEMZERO, .-CYMEMZERO
 143              		.section	.text.AnalogSetDefault,"ax",%progbits
 144              		.align	2
 145              		.thumb
 146              		.thumb_func
 147              		.type	AnalogSetDefault, %function
 148              	AnalogSetDefault:
 149              	.LFB6:
 224:Generated_Source\PSoC5/cyfitter_cfg.c **** 
 225:Generated_Source\PSoC5/cyfitter_cfg.c **** /*******************************************************************************
 226:Generated_Source\PSoC5/cyfitter_cfg.c **** * Function Name: ClockSetup
 227:Generated_Source\PSoC5/cyfitter_cfg.c **** ********************************************************************************
 228:Generated_Source\PSoC5/cyfitter_cfg.c **** *
 229:Generated_Source\PSoC5/cyfitter_cfg.c **** * Summary:
 230:Generated_Source\PSoC5/cyfitter_cfg.c **** *  Performs the initialization of all of the clocks in the device based on the
 231:Generated_Source\PSoC5/cyfitter_cfg.c **** *  settings in the Clock tab of the DWR.  This includes enabling the requested
 232:Generated_Source\PSoC5/cyfitter_cfg.c **** *  clocks and setting the necessary dividers to produce the desired frequency. 
 233:Generated_Source\PSoC5/cyfitter_cfg.c **** *
 234:Generated_Source\PSoC5/cyfitter_cfg.c **** * Parameters:
 235:Generated_Source\PSoC5/cyfitter_cfg.c **** *  void
 236:Generated_Source\PSoC5/cyfitter_cfg.c **** *
 237:Generated_Source\PSoC5/cyfitter_cfg.c **** * Return:
 238:Generated_Source\PSoC5/cyfitter_cfg.c **** *  void
 239:Generated_Source\PSoC5/cyfitter_cfg.c **** *
 240:Generated_Source\PSoC5/cyfitter_cfg.c **** *******************************************************************************/
 241:Generated_Source\PSoC5/cyfitter_cfg.c **** static void ClockSetup(void);
 242:Generated_Source\PSoC5/cyfitter_cfg.c **** static void ClockSetup(void)
 243:Generated_Source\PSoC5/cyfitter_cfg.c **** {
 244:Generated_Source\PSoC5/cyfitter_cfg.c **** 	uint32 timeout;
 245:Generated_Source\PSoC5/cyfitter_cfg.c **** 	uint8 pllLock;
ARM GAS  C:\Users\29928\AppData\Local\Temp\cc0sajyY.s 			page 8


 246:Generated_Source\PSoC5/cyfitter_cfg.c **** 
 247:Generated_Source\PSoC5/cyfitter_cfg.c **** 
 248:Generated_Source\PSoC5/cyfitter_cfg.c **** 	/* Configure Digital Clocks based on settings from Clock DWR */
 249:Generated_Source\PSoC5/cyfitter_cfg.c **** 	CY_SET_XTND_REG16((void CYFAR *)(CYREG_CLKDIST_DCFG0_CFG0), 0x0000u);
 250:Generated_Source\PSoC5/cyfitter_cfg.c **** 	CY_SET_XTND_REG8((void CYFAR *)(CYREG_CLKDIST_DCFG0_CFG0 + 0x2u), 0x50u);
 251:Generated_Source\PSoC5/cyfitter_cfg.c **** 	CY_SET_XTND_REG16((void CYFAR *)(CYREG_CLKDIST_DCFG1_CFG0), 0x000Cu);
 252:Generated_Source\PSoC5/cyfitter_cfg.c **** 	CY_SET_XTND_REG8((void CYFAR *)(CYREG_CLKDIST_DCFG1_CFG0 + 0x2u), 0x18u);
 253:Generated_Source\PSoC5/cyfitter_cfg.c **** 	CY_SET_XTND_REG16((void CYFAR *)(CYREG_CLKDIST_DCFG2_CFG0), 0x000Cu);
 254:Generated_Source\PSoC5/cyfitter_cfg.c **** 	CY_SET_XTND_REG8((void CYFAR *)(CYREG_CLKDIST_DCFG2_CFG0 + 0x2u), 0x18u);
 255:Generated_Source\PSoC5/cyfitter_cfg.c **** 	CY_SET_XTND_REG16((void CYFAR *)(CYREG_CLKDIST_DCFG3_CFG0), 0x000Eu);
 256:Generated_Source\PSoC5/cyfitter_cfg.c **** 	CY_SET_XTND_REG8((void CYFAR *)(CYREG_CLKDIST_DCFG3_CFG0 + 0x2u), 0x18u);
 257:Generated_Source\PSoC5/cyfitter_cfg.c **** 	CY_SET_XTND_REG16((void CYFAR *)(CYREG_CLKDIST_DCFG4_CFG0), 0x0017u);
 258:Generated_Source\PSoC5/cyfitter_cfg.c **** 	CY_SET_XTND_REG8((void CYFAR *)(CYREG_CLKDIST_DCFG4_CFG0 + 0x2u), 0x18u);
 259:Generated_Source\PSoC5/cyfitter_cfg.c **** 	CY_SET_XTND_REG16((void CYFAR *)(CYREG_CLKDIST_DCFG5_CFG0), 0x0019u);
 260:Generated_Source\PSoC5/cyfitter_cfg.c **** 	CY_SET_XTND_REG8((void CYFAR *)(CYREG_CLKDIST_DCFG5_CFG0 + 0x2u), 0x18u);
 261:Generated_Source\PSoC5/cyfitter_cfg.c **** 
 262:Generated_Source\PSoC5/cyfitter_cfg.c **** 	/* Configure Analog Clocks based on settings from Clock DWR */
 263:Generated_Source\PSoC5/cyfitter_cfg.c **** 	CYCONFIGCPY((void CYFAR *)(CYREG_CLKDIST_ACFG0_CFG0), (const void CYFAR *)(BS_CYDEV_CLKDIST_ACFG0_
 264:Generated_Source\PSoC5/cyfitter_cfg.c **** 
 265:Generated_Source\PSoC5/cyfitter_cfg.c **** 	/* Configure ILO based on settings from Clock DWR */
 266:Generated_Source\PSoC5/cyfitter_cfg.c **** 	CY_SET_XTND_REG8((void CYFAR *)(CYREG_SLOWCLK_ILO_CR0), 0x06u);
 267:Generated_Source\PSoC5/cyfitter_cfg.c **** 
 268:Generated_Source\PSoC5/cyfitter_cfg.c **** 	/* Configure IMO based on settings from Clock DWR */
 269:Generated_Source\PSoC5/cyfitter_cfg.c **** 	CY_SET_XTND_REG8((void CYFAR *)(CYREG_FASTCLK_IMO_CR), 0x52u);
 270:Generated_Source\PSoC5/cyfitter_cfg.c **** 	CY_SET_XTND_REG8((void CYFAR *)(CYREG_IMO_TR1), (CY_GET_XTND_REG8((void CYFAR *)CYREG_FLSHID_CUST_
 271:Generated_Source\PSoC5/cyfitter_cfg.c **** 
 272:Generated_Source\PSoC5/cyfitter_cfg.c **** 	/* Configure PLL based on settings from Clock DWR */
 273:Generated_Source\PSoC5/cyfitter_cfg.c **** 	CY_SET_XTND_REG16((void CYFAR *)(CYREG_FASTCLK_PLL_P), 0x0708u);
 274:Generated_Source\PSoC5/cyfitter_cfg.c **** 	CY_SET_XTND_REG16((void CYFAR *)(CYREG_FASTCLK_PLL_CFG0), 0x1251u);
 275:Generated_Source\PSoC5/cyfitter_cfg.c **** 	/* Wait up to 250us for the PLL to lock */
 276:Generated_Source\PSoC5/cyfitter_cfg.c **** 	pllLock = 0u;
 277:Generated_Source\PSoC5/cyfitter_cfg.c **** 	for (timeout = 250u / 10u; (timeout > 0u) && (pllLock != 0x03u); timeout--)
 278:Generated_Source\PSoC5/cyfitter_cfg.c **** 	{ 
 279:Generated_Source\PSoC5/cyfitter_cfg.c **** 		pllLock = 0x03u & ((uint8)((uint8)pllLock << 1) | ((CY_GET_XTND_REG8((void CYFAR *)CYREG_FASTCLK_
 280:Generated_Source\PSoC5/cyfitter_cfg.c **** 		CyDelayCycles(10u * 48u); /* Delay 10us based on 48MHz clock */
 281:Generated_Source\PSoC5/cyfitter_cfg.c **** 	}
 282:Generated_Source\PSoC5/cyfitter_cfg.c **** 	/* If we ran out of time the PLL didn't lock so go to the error function */
 283:Generated_Source\PSoC5/cyfitter_cfg.c **** 	if (timeout == 0u)
 284:Generated_Source\PSoC5/cyfitter_cfg.c **** 	{
 285:Generated_Source\PSoC5/cyfitter_cfg.c **** 		CyClockStartupError(CYCLOCKSTART_PLL_ERROR);
 286:Generated_Source\PSoC5/cyfitter_cfg.c **** 	}
 287:Generated_Source\PSoC5/cyfitter_cfg.c **** 
 288:Generated_Source\PSoC5/cyfitter_cfg.c **** 	/* Configure Bus/Master Clock based on settings from Clock DWR */
 289:Generated_Source\PSoC5/cyfitter_cfg.c **** 	CY_SET_XTND_REG16((void CYFAR *)(CYREG_CLKDIST_MSTR0), 0x0100u);
 290:Generated_Source\PSoC5/cyfitter_cfg.c **** 	CY_SET_XTND_REG8((void CYFAR *)(CYREG_CLKDIST_MSTR0), 0x07u);
 291:Generated_Source\PSoC5/cyfitter_cfg.c **** 	CY_SET_XTND_REG8((void CYFAR *)(CYREG_CLKDIST_BCFG0), 0x00u);
 292:Generated_Source\PSoC5/cyfitter_cfg.c **** 	CY_SET_XTND_REG8((void CYFAR *)(CYREG_CLKDIST_BCFG2), 0x48u);
 293:Generated_Source\PSoC5/cyfitter_cfg.c **** 	CY_SET_XTND_REG8((void CYFAR *)(CYREG_CLKDIST_MSTR0), 0x00u);
 294:Generated_Source\PSoC5/cyfitter_cfg.c **** 
 295:Generated_Source\PSoC5/cyfitter_cfg.c **** 	/* Configure USB Clock based on settings from Clock DWR */
 296:Generated_Source\PSoC5/cyfitter_cfg.c **** 	CY_SET_XTND_REG8((void CYFAR *)(CYREG_CLKDIST_UCFG), 0x00u);
 297:Generated_Source\PSoC5/cyfitter_cfg.c **** 	CY_SET_XTND_REG8((void CYFAR *)(CYREG_CLKDIST_LD), 0x02u);
 298:Generated_Source\PSoC5/cyfitter_cfg.c **** 	CY_SET_XTND_REG8((void CYFAR *)(CYREG_CLKDIST_DLY1), 0x04u);
 299:Generated_Source\PSoC5/cyfitter_cfg.c **** 
 300:Generated_Source\PSoC5/cyfitter_cfg.c **** 	CY_SET_XTND_REG8((void CYFAR *)(CYREG_PM_ACT_CFG2), ((CY_GET_XTND_REG8((void CYFAR *)CYREG_PM_ACT_
 301:Generated_Source\PSoC5/cyfitter_cfg.c **** 	CY_SET_XTND_REG8((void CYFAR *)(CYREG_PM_ACT_CFG1), ((CY_GET_XTND_REG8((void CYFAR *)CYREG_PM_ACT_
 302:Generated_Source\PSoC5/cyfitter_cfg.c **** 	CY_SET_XTND_REG8((void CYFAR *)(CYREG_PM_ACT_CFG0), ((CY_GET_XTND_REG8((void CYFAR *)CYREG_PM_ACT_
ARM GAS  C:\Users\29928\AppData\Local\Temp\cc0sajyY.s 			page 9


 303:Generated_Source\PSoC5/cyfitter_cfg.c **** }
 304:Generated_Source\PSoC5/cyfitter_cfg.c **** 
 305:Generated_Source\PSoC5/cyfitter_cfg.c **** 
 306:Generated_Source\PSoC5/cyfitter_cfg.c **** /* Analog API Functions */
 307:Generated_Source\PSoC5/cyfitter_cfg.c **** 
 308:Generated_Source\PSoC5/cyfitter_cfg.c **** 
 309:Generated_Source\PSoC5/cyfitter_cfg.c **** /*******************************************************************************
 310:Generated_Source\PSoC5/cyfitter_cfg.c **** * Function Name: AnalogSetDefault
 311:Generated_Source\PSoC5/cyfitter_cfg.c **** ********************************************************************************
 312:Generated_Source\PSoC5/cyfitter_cfg.c **** *
 313:Generated_Source\PSoC5/cyfitter_cfg.c **** * Summary:
 314:Generated_Source\PSoC5/cyfitter_cfg.c **** *  Sets up the analog portions of the chip to default values based on chip
 315:Generated_Source\PSoC5/cyfitter_cfg.c **** *  configuration options from the project.
 316:Generated_Source\PSoC5/cyfitter_cfg.c **** *
 317:Generated_Source\PSoC5/cyfitter_cfg.c **** * Parameters:
 318:Generated_Source\PSoC5/cyfitter_cfg.c **** *  void
 319:Generated_Source\PSoC5/cyfitter_cfg.c **** *
 320:Generated_Source\PSoC5/cyfitter_cfg.c **** * Return:
 321:Generated_Source\PSoC5/cyfitter_cfg.c **** *  void
 322:Generated_Source\PSoC5/cyfitter_cfg.c **** *
 323:Generated_Source\PSoC5/cyfitter_cfg.c **** *******************************************************************************/
 324:Generated_Source\PSoC5/cyfitter_cfg.c **** static void AnalogSetDefault(void);
 325:Generated_Source\PSoC5/cyfitter_cfg.c **** static void AnalogSetDefault(void)
 326:Generated_Source\PSoC5/cyfitter_cfg.c **** {
 150              		.loc 1 326 0
 151              		.cfi_startproc
 152              		@ args = 0, pretend = 0, frame = 0
 153              		@ frame_needed = 0, uses_anonymous_args = 0
 154 0000 F8B5     		push	{r3, r4, r5, r6, r7, lr}
 155              		.cfi_def_cfa_offset 24
 156              		.cfi_offset 3, -24
 157              		.cfi_offset 4, -20
 158              		.cfi_offset 5, -16
 159              		.cfi_offset 6, -12
 160              		.cfi_offset 7, -8
 161              		.cfi_offset 14, -4
 327:Generated_Source\PSoC5/cyfitter_cfg.c **** 	uint8 bg_xover_inl_trim = CY_GET_XTND_REG8((void CYFAR *)(CYREG_FLSHID_MFG_CFG_BG_XOVER_INL_TRIM +
 162              		.loc 1 327 0
 163 0002 1D4B     		ldr	r3, .L13
 164 0004 1B78     		ldrb	r3, [r3]	@ zero_extendqisi2
 165 0006 DBB2     		uxtb	r3, r3
 166              	.LVL15:
 328:Generated_Source\PSoC5/cyfitter_cfg.c **** 	uint8 cr4 = CY_GET_XTND_REG8((void CYFAR *)(CYREG_RESET_CR4));
 167              		.loc 1 328 0
 168 0008 1C4E     		ldr	r6, .L13+4
 169 000a 3478     		ldrb	r4, [r6]	@ zero_extendqisi2
 170 000c E4B2     		uxtb	r4, r4
 171              	.LVL16:
 329:Generated_Source\PSoC5/cyfitter_cfg.c **** 	uint8 cr5 = CY_GET_XTND_REG8((void CYFAR *)(CYREG_RESET_CR5));
 172              		.loc 1 329 0
 173 000e 1C4F     		ldr	r7, .L13+8
 174 0010 3D78     		ldrb	r5, [r7]	@ zero_extendqisi2
 175 0012 EDB2     		uxtb	r5, r5
 176              	.LVL17:
 330:Generated_Source\PSoC5/cyfitter_cfg.c **** 	CY_SET_XTND_REG8((void CYFAR *)(CYREG_BG_DFT0), (bg_xover_inl_trim & 0x07u));
 177              		.loc 1 330 0
 178 0014 03F00701 		and	r1, r3, #7
ARM GAS  C:\Users\29928\AppData\Local\Temp\cc0sajyY.s 			page 10


 179 0018 1A4A     		ldr	r2, .L13+12
 180 001a 1170     		strb	r1, [r2]
 331:Generated_Source\PSoC5/cyfitter_cfg.c **** 	CY_SET_XTND_REG8((void CYFAR *)(CYREG_BG_DFT1), ((bg_xover_inl_trim >> 4) & 0x0Fu));
 181              		.loc 1 331 0
 182 001c 1B09     		lsrs	r3, r3, #4
 183              	.LVL18:
 184 001e 0132     		adds	r2, r2, #1
 185 0020 1370     		strb	r3, [r2]
 332:Generated_Source\PSoC5/cyfitter_cfg.c **** 	/* Disable PRES while setting up SAR voltage reference */
 333:Generated_Source\PSoC5/cyfitter_cfg.c **** 	CY_SET_XTND_REG8((void CYFAR *)(CYREG_RESET_CR4), (cr4 | 0x03u));
 186              		.loc 1 333 0
 187 0022 44F00303 		orr	r3, r4, #3
 188 0026 3370     		strb	r3, [r6]
 334:Generated_Source\PSoC5/cyfitter_cfg.c **** 	CY_SET_XTND_REG8((void CYFAR *)(CYREG_RESET_CR5), (cr5 | 0x03u));
 189              		.loc 1 334 0
 190 0028 45F00303 		orr	r3, r5, #3
 191 002c 3B70     		strb	r3, [r7]
 335:Generated_Source\PSoC5/cyfitter_cfg.c **** 	CY_SET_XTND_REG8((void CYFAR *)CYREG_PRT0_AG, 0xCCu);
 192              		.loc 1 335 0
 193 002e CC22     		movs	r2, #204
 194 0030 154B     		ldr	r3, .L13+16
 195 0032 1A70     		strb	r2, [r3]
 336:Generated_Source\PSoC5/cyfitter_cfg.c **** 	CY_SET_XTND_REG8((void CYFAR *)CYREG_SAR0_CSR1, 0x40u);
 196              		.loc 1 336 0
 197 0034 4023     		movs	r3, #64
 198 0036 154A     		ldr	r2, .L13+20
 199 0038 1370     		strb	r3, [r2]
 337:Generated_Source\PSoC5/cyfitter_cfg.c **** 	CY_SET_XTND_REG8((void CYFAR *)CYREG_SAR0_CSR3, 0x40u);
 200              		.loc 1 337 0
 201 003a 0232     		adds	r2, r2, #2
 202 003c 1370     		strb	r3, [r2]
 338:Generated_Source\PSoC5/cyfitter_cfg.c **** 	CY_SET_XTND_REG8((void CYFAR *)CYREG_DAC2_SW4, 0x30u);
 203              		.loc 1 338 0
 204 003e 3022     		movs	r2, #48
 205 0040 134B     		ldr	r3, .L13+24
 206 0042 1A70     		strb	r2, [r3]
 339:Generated_Source\PSoC5/cyfitter_cfg.c **** 	CY_SET_XTND_REG8((void CYFAR *)CYREG_DSM0_SW3, 0x01u);
 207              		.loc 1 339 0
 208 0044 0123     		movs	r3, #1
 209 0046 134A     		ldr	r2, .L13+28
 210 0048 1370     		strb	r3, [r2]
 340:Generated_Source\PSoC5/cyfitter_cfg.c **** 	CY_SET_XTND_REG8((void CYFAR *)CYREG_DSM0_SW4, 0x20u);
 211              		.loc 1 340 0
 212 004a 2022     		movs	r2, #32
 213 004c 1249     		ldr	r1, .L13+32
 214 004e 0A70     		strb	r2, [r1]
 341:Generated_Source\PSoC5/cyfitter_cfg.c **** 	CY_SET_XTND_REG8((void CYFAR *)CYREG_SAR0_SW0, 0xC0u);
 215              		.loc 1 341 0
 216 0050 C020     		movs	r0, #192
 217 0052 1C31     		adds	r1, r1, #28
 218 0054 0870     		strb	r0, [r1]
 342:Generated_Source\PSoC5/cyfitter_cfg.c **** 	CY_SET_XTND_REG8((void CYFAR *)CYREG_SAR0_SW3, 0x20u);
 219              		.loc 1 342 0
 220 0056 0331     		adds	r1, r1, #3
 221 0058 0A70     		strb	r2, [r1]
 343:Generated_Source\PSoC5/cyfitter_cfg.c **** 	CY_SET_XTND_REG8((void CYFAR *)CYREG_BUS_SW0, 0x10u);
 222              		.loc 1 343 0
ARM GAS  C:\Users\29928\AppData\Local\Temp\cc0sajyY.s 			page 11


 223 005a 1021     		movs	r1, #16
 224 005c 0F4A     		ldr	r2, .L13+36
 225 005e 1170     		strb	r1, [r2]
 344:Generated_Source\PSoC5/cyfitter_cfg.c **** 	CY_SET_XTND_REG8((void CYFAR *)CYREG_BUS_SW3, 0x01u);
 226              		.loc 1 344 0
 227 0060 0332     		adds	r2, r2, #3
 228 0062 1370     		strb	r3, [r2]
 345:Generated_Source\PSoC5/cyfitter_cfg.c **** 	CyDelayUs(10u); /* Allow vref to settle before re-enabling PRES */
 229              		.loc 1 345 0
 230 0064 0A20     		movs	r0, #10
 231 0066 FFF7FEFF 		bl	CyDelayUs
 232              	.LVL19:
 346:Generated_Source\PSoC5/cyfitter_cfg.c **** 	CY_SET_XTND_REG8((void CYFAR *)(CYREG_RESET_CR5), (cr5));
 233              		.loc 1 346 0
 234 006a 3D70     		strb	r5, [r7]
 347:Generated_Source\PSoC5/cyfitter_cfg.c **** 	CY_SET_XTND_REG8((void CYFAR *)(CYREG_RESET_CR4), (cr4));
 235              		.loc 1 347 0
 236 006c 3470     		strb	r4, [r6]
 348:Generated_Source\PSoC5/cyfitter_cfg.c **** 	CY_SET_XTND_REG8((void CYFAR *)CYREG_PUMP_CR0, 0x44u);
 237              		.loc 1 348 0
 238 006e 4422     		movs	r2, #68
 239 0070 0B4B     		ldr	r3, .L13+40
 240 0072 1A70     		strb	r2, [r3]
 241 0074 F8BD     		pop	{r3, r4, r5, r6, r7, pc}
 242              	.LVL20:
 243              	.L14:
 244 0076 00BF     		.align	2
 245              	.L13:
 246 0078 CF010049 		.word	1224737231
 247 007c F8460040 		.word	1073759992
 248 0080 F9460040 		.word	1073759993
 249 0084 6E580040 		.word	1073764462
 250 0088 0D510040 		.word	1073762573
 251 008c 01590040 		.word	1073764609
 252 0090 945A0040 		.word	1073765012
 253 0094 035B0040 		.word	1073765123
 254 0098 045B0040 		.word	1073765124
 255 009c 585B0040 		.word	1073765208
 256 00a0 76580040 		.word	1073764470
 257              		.cfi_endproc
 258              	.LFE6:
 259              		.size	AnalogSetDefault, .-AnalogSetDefault
 260              		.section	.text.CYCONFIGCPY,"ax",%progbits
 261              		.align	2
 262              		.thumb
 263              		.thumb_func
 264              		.type	CYCONFIGCPY, %function
 265              	CYCONFIGCPY:
 266              	.LFB1:
  85:Generated_Source\PSoC5/cyfitter_cfg.c **** 	(void)memcpy(dest, src, n);
 267              		.loc 1 85 0
 268              		.cfi_startproc
 269              		@ args = 0, pretend = 0, frame = 0
 270              		@ frame_needed = 0, uses_anonymous_args = 0
 271              	.LVL21:
 272 0000 08B5     		push	{r3, lr}
 273              		.cfi_def_cfa_offset 8
ARM GAS  C:\Users\29928\AppData\Local\Temp\cc0sajyY.s 			page 12


 274              		.cfi_offset 3, -8
 275              		.cfi_offset 14, -4
  86:Generated_Source\PSoC5/cyfitter_cfg.c **** }
 276              		.loc 1 86 0
 277 0002 FFF7FEFF 		bl	memcpy
 278              	.LVL22:
 279 0006 08BD     		pop	{r3, pc}
 280              		.cfi_endproc
 281              	.LFE1:
 282              		.size	CYCONFIGCPY, .-CYCONFIGCPY
 283              		.section	.text.ClockSetup,"ax",%progbits
 284              		.align	2
 285              		.thumb
 286              		.thumb_func
 287              		.type	ClockSetup, %function
 288              	ClockSetup:
 289              	.LFB5:
 243:Generated_Source\PSoC5/cyfitter_cfg.c **** 	uint32 timeout;
 290              		.loc 1 243 0
 291              		.cfi_startproc
 292              		@ args = 0, pretend = 0, frame = 0
 293              		@ frame_needed = 0, uses_anonymous_args = 0
 294 0000 38B5     		push	{r3, r4, r5, lr}
 295              		.cfi_def_cfa_offset 16
 296              		.cfi_offset 3, -16
 297              		.cfi_offset 4, -12
 298              		.cfi_offset 5, -8
 299              		.cfi_offset 14, -4
 249:Generated_Source\PSoC5/cyfitter_cfg.c **** 	CY_SET_XTND_REG8((void CYFAR *)(CYREG_CLKDIST_DCFG0_CFG0 + 0x2u), 0x50u);
 300              		.loc 1 249 0
 301 0002 0024     		movs	r4, #0
 302 0004 384B     		ldr	r3, .L23
 303 0006 1C80     		strh	r4, [r3]	@ movhi
 250:Generated_Source\PSoC5/cyfitter_cfg.c **** 	CY_SET_XTND_REG16((void CYFAR *)(CYREG_CLKDIST_DCFG1_CFG0), 0x000Cu);
 304              		.loc 1 250 0
 305 0008 5022     		movs	r2, #80
 306 000a 0233     		adds	r3, r3, #2
 307 000c 1A70     		strb	r2, [r3]
 251:Generated_Source\PSoC5/cyfitter_cfg.c **** 	CY_SET_XTND_REG8((void CYFAR *)(CYREG_CLKDIST_DCFG1_CFG0 + 0x2u), 0x18u);
 308              		.loc 1 251 0
 309 000e 0C22     		movs	r2, #12
 310 0010 0233     		adds	r3, r3, #2
 311 0012 1A80     		strh	r2, [r3]	@ movhi
 252:Generated_Source\PSoC5/cyfitter_cfg.c **** 	CY_SET_XTND_REG16((void CYFAR *)(CYREG_CLKDIST_DCFG2_CFG0), 0x000Cu);
 312              		.loc 1 252 0
 313 0014 1823     		movs	r3, #24
 314 0016 3549     		ldr	r1, .L23+4
 315 0018 0B70     		strb	r3, [r1]
 253:Generated_Source\PSoC5/cyfitter_cfg.c **** 	CY_SET_XTND_REG8((void CYFAR *)(CYREG_CLKDIST_DCFG2_CFG0 + 0x2u), 0x18u);
 316              		.loc 1 253 0
 317 001a 0231     		adds	r1, r1, #2
 318 001c 0A80     		strh	r2, [r1]	@ movhi
 254:Generated_Source\PSoC5/cyfitter_cfg.c **** 	CY_SET_XTND_REG16((void CYFAR *)(CYREG_CLKDIST_DCFG3_CFG0), 0x000Eu);
 319              		.loc 1 254 0
 320 001e 344A     		ldr	r2, .L23+8
 321 0020 1370     		strb	r3, [r2]
 255:Generated_Source\PSoC5/cyfitter_cfg.c **** 	CY_SET_XTND_REG8((void CYFAR *)(CYREG_CLKDIST_DCFG3_CFG0 + 0x2u), 0x18u);
ARM GAS  C:\Users\29928\AppData\Local\Temp\cc0sajyY.s 			page 13


 322              		.loc 1 255 0
 323 0022 0E21     		movs	r1, #14
 324 0024 0232     		adds	r2, r2, #2
 325 0026 1180     		strh	r1, [r2]	@ movhi
 256:Generated_Source\PSoC5/cyfitter_cfg.c **** 	CY_SET_XTND_REG16((void CYFAR *)(CYREG_CLKDIST_DCFG4_CFG0), 0x0017u);
 326              		.loc 1 256 0
 327 0028 0232     		adds	r2, r2, #2
 328 002a 1370     		strb	r3, [r2]
 257:Generated_Source\PSoC5/cyfitter_cfg.c **** 	CY_SET_XTND_REG8((void CYFAR *)(CYREG_CLKDIST_DCFG4_CFG0 + 0x2u), 0x18u);
 329              		.loc 1 257 0
 330 002c 1721     		movs	r1, #23
 331 002e 0232     		adds	r2, r2, #2
 332 0030 1180     		strh	r1, [r2]	@ movhi
 258:Generated_Source\PSoC5/cyfitter_cfg.c **** 	CY_SET_XTND_REG16((void CYFAR *)(CYREG_CLKDIST_DCFG5_CFG0), 0x0019u);
 333              		.loc 1 258 0
 334 0032 0232     		adds	r2, r2, #2
 335 0034 1370     		strb	r3, [r2]
 259:Generated_Source\PSoC5/cyfitter_cfg.c **** 	CY_SET_XTND_REG8((void CYFAR *)(CYREG_CLKDIST_DCFG5_CFG0 + 0x2u), 0x18u);
 336              		.loc 1 259 0
 337 0036 1925     		movs	r5, #25
 338 0038 0232     		adds	r2, r2, #2
 339 003a 1580     		strh	r5, [r2]	@ movhi
 260:Generated_Source\PSoC5/cyfitter_cfg.c **** 
 340              		.loc 1 260 0
 341 003c 0232     		adds	r2, r2, #2
 342 003e 1370     		strb	r3, [r2]
 263:Generated_Source\PSoC5/cyfitter_cfg.c **** 
 343              		.loc 1 263 0
 344 0040 0422     		movs	r2, #4
 345 0042 2C49     		ldr	r1, .L23+12
 346 0044 2C48     		ldr	r0, .L23+16
 347 0046 FFF7FEFF 		bl	CYCONFIGCPY
 348              	.LVL23:
 266:Generated_Source\PSoC5/cyfitter_cfg.c **** 
 349              		.loc 1 266 0
 350 004a 0622     		movs	r2, #6
 351 004c 2B4B     		ldr	r3, .L23+20
 352 004e 1A70     		strb	r2, [r3]
 269:Generated_Source\PSoC5/cyfitter_cfg.c **** 	CY_SET_XTND_REG8((void CYFAR *)(CYREG_IMO_TR1), (CY_GET_XTND_REG8((void CYFAR *)CYREG_FLSHID_CUST_
 353              		.loc 1 269 0
 354 0050 5222     		movs	r2, #82
 355 0052 A3F58073 		sub	r3, r3, #256
 356 0056 1A70     		strb	r2, [r3]
 270:Generated_Source\PSoC5/cyfitter_cfg.c **** 
 357              		.loc 1 270 0
 358 0058 294B     		ldr	r3, .L23+24
 359 005a 1B78     		ldrb	r3, [r3]	@ zero_extendqisi2
 360 005c DBB2     		uxtb	r3, r3
 361 005e 294A     		ldr	r2, .L23+28
 362 0060 1370     		strb	r3, [r2]
 273:Generated_Source\PSoC5/cyfitter_cfg.c **** 	CY_SET_XTND_REG16((void CYFAR *)(CYREG_FASTCLK_PLL_CFG0), 0x1251u);
 363              		.loc 1 273 0
 364 0062 4FF4E162 		mov	r2, #1800
 365 0066 284B     		ldr	r3, .L23+32
 366 0068 1A80     		strh	r2, [r3]	@ movhi
 274:Generated_Source\PSoC5/cyfitter_cfg.c **** 	/* Wait up to 250us for the PLL to lock */
 367              		.loc 1 274 0
ARM GAS  C:\Users\29928\AppData\Local\Temp\cc0sajyY.s 			page 14


 368 006a 41F25122 		movw	r2, #4689
 369 006e 023B     		subs	r3, r3, #2
 370 0070 1A80     		strh	r2, [r3]	@ movhi
 371              	.LVL24:
 277:Generated_Source\PSoC5/cyfitter_cfg.c **** 	{ 
 372              		.loc 1 277 0
 373 0072 0CE0     		b	.L18
 374              	.LVL25:
 375              	.L20:
 279:Generated_Source\PSoC5/cyfitter_cfg.c **** 		CyDelayCycles(10u * 48u); /* Delay 10us based on 48MHz clock */
 376              		.loc 1 279 0 discriminator 4
 377 0074 254B     		ldr	r3, .L23+36
 378 0076 1B78     		ldrb	r3, [r3]	@ zero_extendqisi2
 379 0078 03F00103 		and	r3, r3, #1
 380 007c 43EA4404 		orr	r4, r3, r4, lsl #1
 381              	.LVL26:
 382 0080 04F00304 		and	r4, r4, #3
 383              	.LVL27:
 280:Generated_Source\PSoC5/cyfitter_cfg.c **** 	}
 384              		.loc 1 280 0 discriminator 4
 385 0084 4FF4F070 		mov	r0, #480
 386 0088 FFF7FEFF 		bl	CyDelayCycles
 387              	.LVL28:
 277:Generated_Source\PSoC5/cyfitter_cfg.c **** 	{ 
 388              		.loc 1 277 0 discriminator 4
 389 008c 013D     		subs	r5, r5, #1
 390              	.LVL29:
 391              	.L18:
 277:Generated_Source\PSoC5/cyfitter_cfg.c **** 	{ 
 392              		.loc 1 277 0 is_stmt 0 discriminator 1
 393 008e 0DB1     		cbz	r5, .L19
 277:Generated_Source\PSoC5/cyfitter_cfg.c **** 	{ 
 394              		.loc 1 277 0 discriminator 3
 395 0090 032C     		cmp	r4, #3
 396 0092 EFD1     		bne	.L20
 397              	.L19:
 283:Generated_Source\PSoC5/cyfitter_cfg.c **** 	{
 398              		.loc 1 283 0 is_stmt 1
 399 0094 15B9     		cbnz	r5, .L21
 285:Generated_Source\PSoC5/cyfitter_cfg.c **** 	}
 400              		.loc 1 285 0
 401 0096 0320     		movs	r0, #3
 402 0098 FFF7FEFF 		bl	CyClockStartupError
 403              	.LVL30:
 404              	.L21:
 289:Generated_Source\PSoC5/cyfitter_cfg.c **** 	CY_SET_XTND_REG8((void CYFAR *)(CYREG_CLKDIST_MSTR0), 0x07u);
 405              		.loc 1 289 0
 406 009c 1C4A     		ldr	r2, .L23+40
 407 009e 4FF48073 		mov	r3, #256
 408 00a2 1380     		strh	r3, [r2]	@ movhi
 290:Generated_Source\PSoC5/cyfitter_cfg.c **** 	CY_SET_XTND_REG8((void CYFAR *)(CYREG_CLKDIST_BCFG0), 0x00u);
 409              		.loc 1 290 0
 410 00a4 0723     		movs	r3, #7
 411 00a6 1370     		strb	r3, [r2]
 291:Generated_Source\PSoC5/cyfitter_cfg.c **** 	CY_SET_XTND_REG8((void CYFAR *)(CYREG_CLKDIST_BCFG2), 0x48u);
 412              		.loc 1 291 0
 413 00a8 0023     		movs	r3, #0
ARM GAS  C:\Users\29928\AppData\Local\Temp\cc0sajyY.s 			page 15


 414 00aa 1A49     		ldr	r1, .L23+44
 415 00ac 0B70     		strb	r3, [r1]
 292:Generated_Source\PSoC5/cyfitter_cfg.c **** 	CY_SET_XTND_REG8((void CYFAR *)(CYREG_CLKDIST_MSTR0), 0x00u);
 416              		.loc 1 292 0
 417 00ae 4820     		movs	r0, #72
 418 00b0 0231     		adds	r1, r1, #2
 419 00b2 0870     		strb	r0, [r1]
 293:Generated_Source\PSoC5/cyfitter_cfg.c **** 
 420              		.loc 1 293 0
 421 00b4 1370     		strb	r3, [r2]
 296:Generated_Source\PSoC5/cyfitter_cfg.c **** 	CY_SET_XTND_REG8((void CYFAR *)(CYREG_CLKDIST_LD), 0x02u);
 422              		.loc 1 296 0
 423 00b6 0532     		adds	r2, r2, #5
 424 00b8 1370     		strb	r3, [r2]
 297:Generated_Source\PSoC5/cyfitter_cfg.c **** 	CY_SET_XTND_REG8((void CYFAR *)(CYREG_CLKDIST_DLY1), 0x04u);
 425              		.loc 1 297 0
 426 00ba 0222     		movs	r2, #2
 427 00bc 164B     		ldr	r3, .L23+48
 428 00be 1A70     		strb	r2, [r3]
 298:Generated_Source\PSoC5/cyfitter_cfg.c **** 
 429              		.loc 1 298 0
 430 00c0 0422     		movs	r2, #4
 431 00c2 0A33     		adds	r3, r3, #10
 432 00c4 1A70     		strb	r2, [r3]
 300:Generated_Source\PSoC5/cyfitter_cfg.c **** 	CY_SET_XTND_REG8((void CYFAR *)(CYREG_PM_ACT_CFG1), ((CY_GET_XTND_REG8((void CYFAR *)CYREG_PM_ACT_
 433              		.loc 1 300 0
 434 00c6 154A     		ldr	r2, .L23+52
 435 00c8 1378     		ldrb	r3, [r2]	@ zero_extendqisi2
 436 00ca 43F03F03 		orr	r3, r3, #63
 437 00ce 1370     		strb	r3, [r2]
 301:Generated_Source\PSoC5/cyfitter_cfg.c **** 	CY_SET_XTND_REG8((void CYFAR *)(CYREG_PM_ACT_CFG0), ((CY_GET_XTND_REG8((void CYFAR *)CYREG_PM_ACT_
 438              		.loc 1 301 0
 439 00d0 013A     		subs	r2, r2, #1
 440 00d2 1378     		ldrb	r3, [r2]	@ zero_extendqisi2
 441 00d4 43F00103 		orr	r3, r3, #1
 442 00d8 1370     		strb	r3, [r2]
 302:Generated_Source\PSoC5/cyfitter_cfg.c **** }
 443              		.loc 1 302 0
 444 00da 013A     		subs	r2, r2, #1
 445 00dc 1378     		ldrb	r3, [r2]	@ zero_extendqisi2
 446 00de 43F08003 		orr	r3, r3, #128
 447 00e2 1370     		strb	r3, [r2]
 448 00e4 38BD     		pop	{r3, r4, r5, pc}
 449              	.LVL31:
 450              	.L24:
 451 00e6 00BF     		.align	2
 452              	.L23:
 453 00e8 80400040 		.word	1073758336
 454 00ec 86400040 		.word	1073758342
 455 00f0 8A400040 		.word	1073758346
 456 00f4 C00F0048 		.word	1207963584
 457 00f8 00410040 		.word	1073758464
 458 00fc 00430040 		.word	1073758976
 459 0100 0F010049 		.word	1224737039
 460 0104 A1460040 		.word	1073759905
 461 0108 22420040 		.word	1073758754
 462 010c 25420040 		.word	1073758757
ARM GAS  C:\Users\29928\AppData\Local\Temp\cc0sajyY.s 			page 16


 463 0110 04400040 		.word	1073758212
 464 0114 06400040 		.word	1073758214
 465 0118 01400040 		.word	1073758209
 466 011c A2430040 		.word	1073759138
 467              		.cfi_endproc
 468              	.LFE5:
 469              		.size	ClockSetup, .-ClockSetup
 470              		.section	.text.SetAnalogRoutingPumps,"ax",%progbits
 471              		.align	2
 472              		.global	SetAnalogRoutingPumps
 473              		.thumb
 474              		.thumb_func
 475              		.type	SetAnalogRoutingPumps, %function
 476              	SetAnalogRoutingPumps:
 477              	.LFB7:
 349:Generated_Source\PSoC5/cyfitter_cfg.c **** }
 350:Generated_Source\PSoC5/cyfitter_cfg.c **** 
 351:Generated_Source\PSoC5/cyfitter_cfg.c **** 
 352:Generated_Source\PSoC5/cyfitter_cfg.c **** /*******************************************************************************
 353:Generated_Source\PSoC5/cyfitter_cfg.c **** * Function Name: SetAnalogRoutingPumps
 354:Generated_Source\PSoC5/cyfitter_cfg.c **** ********************************************************************************
 355:Generated_Source\PSoC5/cyfitter_cfg.c **** *
 356:Generated_Source\PSoC5/cyfitter_cfg.c **** * Summary:
 357:Generated_Source\PSoC5/cyfitter_cfg.c **** * Enables or disables the analog pumps feeding analog routing switches.
 358:Generated_Source\PSoC5/cyfitter_cfg.c **** * Intended to be called at startup, based on the Vdda system configuration;
 359:Generated_Source\PSoC5/cyfitter_cfg.c **** * may be called during operation when the user informs us that the Vdda voltage
 360:Generated_Source\PSoC5/cyfitter_cfg.c **** * crossed the pump threshold.
 361:Generated_Source\PSoC5/cyfitter_cfg.c **** *
 362:Generated_Source\PSoC5/cyfitter_cfg.c **** * Parameters:
 363:Generated_Source\PSoC5/cyfitter_cfg.c **** *  enabled - 1 to enable the pumps, 0 to disable the pumps
 364:Generated_Source\PSoC5/cyfitter_cfg.c **** *
 365:Generated_Source\PSoC5/cyfitter_cfg.c **** * Return:
 366:Generated_Source\PSoC5/cyfitter_cfg.c **** *  void
 367:Generated_Source\PSoC5/cyfitter_cfg.c **** *
 368:Generated_Source\PSoC5/cyfitter_cfg.c **** *******************************************************************************/
 369:Generated_Source\PSoC5/cyfitter_cfg.c **** void SetAnalogRoutingPumps(uint8 enabled)
 370:Generated_Source\PSoC5/cyfitter_cfg.c **** {
 478              		.loc 1 370 0
 479              		.cfi_startproc
 480              		@ args = 0, pretend = 0, frame = 0
 481              		@ frame_needed = 0, uses_anonymous_args = 0
 482              		@ link register save eliminated.
 483              	.LVL32:
 371:Generated_Source\PSoC5/cyfitter_cfg.c **** 	uint8 regValue = CY_GET_XTND_REG8((void CYFAR *)CYREG_PUMP_CR0);
 484              		.loc 1 371 0
 485 0000 054B     		ldr	r3, .L28
 486 0002 1B78     		ldrb	r3, [r3]	@ zero_extendqisi2
 487 0004 DBB2     		uxtb	r3, r3
 488              	.LVL33:
 372:Generated_Source\PSoC5/cyfitter_cfg.c **** 	if (enabled != 0u)
 489              		.loc 1 372 0
 490 0006 10B1     		cbz	r0, .L26
 373:Generated_Source\PSoC5/cyfitter_cfg.c **** 	{
 374:Generated_Source\PSoC5/cyfitter_cfg.c **** 		regValue |= 0x22u;
 491              		.loc 1 374 0
 492 0008 43F02203 		orr	r3, r3, #34
 493              	.LVL34:
ARM GAS  C:\Users\29928\AppData\Local\Temp\cc0sajyY.s 			page 17


 494 000c 01E0     		b	.L27
 495              	.L26:
 375:Generated_Source\PSoC5/cyfitter_cfg.c **** 	}
 376:Generated_Source\PSoC5/cyfitter_cfg.c **** 	else
 377:Generated_Source\PSoC5/cyfitter_cfg.c **** 	{
 378:Generated_Source\PSoC5/cyfitter_cfg.c **** 		regValue &= (uint8)~0x22u;
 496              		.loc 1 378 0
 497 000e 03F0DD03 		and	r3, r3, #221
 498              	.LVL35:
 499              	.L27:
 379:Generated_Source\PSoC5/cyfitter_cfg.c **** 	}
 380:Generated_Source\PSoC5/cyfitter_cfg.c **** 	CY_SET_XTND_REG8((void CYFAR *)CYREG_PUMP_CR0, regValue);
 500              		.loc 1 380 0
 501 0012 014A     		ldr	r2, .L28
 502 0014 1370     		strb	r3, [r2]
 503 0016 7047     		bx	lr
 504              	.L29:
 505              		.align	2
 506              	.L28:
 507 0018 76580040 		.word	1073764470
 508              		.cfi_endproc
 509              	.LFE7:
 510              		.size	SetAnalogRoutingPumps, .-SetAnalogRoutingPumps
 511              		.section	.text.AMux_CYAMUXSIDE_A_Set,"ax",%progbits
 512              		.align	2
 513              		.global	AMux_CYAMUXSIDE_A_Set
 514              		.thumb
 515              		.thumb_func
 516              		.type	AMux_CYAMUXSIDE_A_Set, %function
 517              	AMux_CYAMUXSIDE_A_Set:
 518              	.LFB8:
 381:Generated_Source\PSoC5/cyfitter_cfg.c **** }
 382:Generated_Source\PSoC5/cyfitter_cfg.c **** 
 383:Generated_Source\PSoC5/cyfitter_cfg.c **** 
 384:Generated_Source\PSoC5/cyfitter_cfg.c **** #define CY_AMUX_UNUSED CYREG_BOOST_SR
 385:Generated_Source\PSoC5/cyfitter_cfg.c **** /* This is an implementation detail of the AMux. Code that depends on it may be
 386:Generated_Source\PSoC5/cyfitter_cfg.c ****    incompatible with other versions of PSoC Creator. */
 387:Generated_Source\PSoC5/cyfitter_cfg.c **** uint8 CYXDATA * const CYCODE AMux_CYAMUXSIDE_A__addrTable[2] = {
 388:Generated_Source\PSoC5/cyfitter_cfg.c **** 	(uint8 CYXDATA *)CYREG_PRT3_AMUX, 
 389:Generated_Source\PSoC5/cyfitter_cfg.c **** 	(uint8 CYXDATA *)CYREG_PRT0_AMUX, 
 390:Generated_Source\PSoC5/cyfitter_cfg.c **** };
 391:Generated_Source\PSoC5/cyfitter_cfg.c **** 
 392:Generated_Source\PSoC5/cyfitter_cfg.c **** /* This is an implementation detail of the AMux. Code that depends on it may be
 393:Generated_Source\PSoC5/cyfitter_cfg.c ****    incompatible with other versions of PSoC Creator. */
 394:Generated_Source\PSoC5/cyfitter_cfg.c **** const uint8 CYCODE AMux_CYAMUXSIDE_A__maskTable[2] = {
 395:Generated_Source\PSoC5/cyfitter_cfg.c **** 	0x20u, 
 396:Generated_Source\PSoC5/cyfitter_cfg.c **** 	0x10u, 
 397:Generated_Source\PSoC5/cyfitter_cfg.c **** };
 398:Generated_Source\PSoC5/cyfitter_cfg.c **** 
 399:Generated_Source\PSoC5/cyfitter_cfg.c **** /*******************************************************************************
 400:Generated_Source\PSoC5/cyfitter_cfg.c **** * Function Name: AMux_CYAMUXSIDE_A_Set
 401:Generated_Source\PSoC5/cyfitter_cfg.c **** ********************************************************************************
 402:Generated_Source\PSoC5/cyfitter_cfg.c **** * Summary:
 403:Generated_Source\PSoC5/cyfitter_cfg.c **** *  This function is used to set a particular channel as active on the AMux.
 404:Generated_Source\PSoC5/cyfitter_cfg.c **** *
 405:Generated_Source\PSoC5/cyfitter_cfg.c **** * Parameters:  
 406:Generated_Source\PSoC5/cyfitter_cfg.c **** *   channel - The mux channel input to set as active
ARM GAS  C:\Users\29928\AppData\Local\Temp\cc0sajyY.s 			page 18


 407:Generated_Source\PSoC5/cyfitter_cfg.c **** *
 408:Generated_Source\PSoC5/cyfitter_cfg.c **** * Return:
 409:Generated_Source\PSoC5/cyfitter_cfg.c **** *   void
 410:Generated_Source\PSoC5/cyfitter_cfg.c **** *
 411:Generated_Source\PSoC5/cyfitter_cfg.c **** *******************************************************************************/
 412:Generated_Source\PSoC5/cyfitter_cfg.c **** void AMux_CYAMUXSIDE_A_Set(uint8 channel)
 413:Generated_Source\PSoC5/cyfitter_cfg.c **** {
 519              		.loc 1 413 0
 520              		.cfi_startproc
 521              		@ args = 0, pretend = 0, frame = 0
 522              		@ frame_needed = 0, uses_anonymous_args = 0
 523              		@ link register save eliminated.
 524              	.LVL36:
 414:Generated_Source\PSoC5/cyfitter_cfg.c **** 	if (channel < 2)
 525              		.loc 1 414 0
 526 0000 0128     		cmp	r0, #1
 527 0002 07D8     		bhi	.L30
 415:Generated_Source\PSoC5/cyfitter_cfg.c **** 	{
 416:Generated_Source\PSoC5/cyfitter_cfg.c **** 		*AMux_CYAMUXSIDE_A__addrTable[channel] |= AMux_CYAMUXSIDE_A__maskTable[channel];
 528              		.loc 1 416 0
 529 0004 044B     		ldr	r3, .L32
 530 0006 53F82020 		ldr	r2, [r3, r0, lsl #2]
 531 000a 1844     		add	r0, r0, r3
 532              	.LVL37:
 533 000c 017A     		ldrb	r1, [r0, #8]	@ zero_extendqisi2
 534 000e 1378     		ldrb	r3, [r2]	@ zero_extendqisi2
 535 0010 0B43     		orrs	r3, r3, r1
 536 0012 1370     		strb	r3, [r2]
 537              	.L30:
 538 0014 7047     		bx	lr
 539              	.L33:
 540 0016 00BF     		.align	2
 541              	.L32:
 542 0018 00000000 		.word	.LANCHOR0
 543              		.cfi_endproc
 544              	.LFE8:
 545              		.size	AMux_CYAMUXSIDE_A_Set, .-AMux_CYAMUXSIDE_A_Set
 546              		.section	.text.AMux_CYAMUXSIDE_A_Unset,"ax",%progbits
 547              		.align	2
 548              		.global	AMux_CYAMUXSIDE_A_Unset
 549              		.thumb
 550              		.thumb_func
 551              		.type	AMux_CYAMUXSIDE_A_Unset, %function
 552              	AMux_CYAMUXSIDE_A_Unset:
 553              	.LFB9:
 417:Generated_Source\PSoC5/cyfitter_cfg.c **** 	}
 418:Generated_Source\PSoC5/cyfitter_cfg.c **** }
 419:Generated_Source\PSoC5/cyfitter_cfg.c **** 
 420:Generated_Source\PSoC5/cyfitter_cfg.c **** /*******************************************************************************
 421:Generated_Source\PSoC5/cyfitter_cfg.c **** * Function Name: AMux_CYAMUXSIDE_A_Unset
 422:Generated_Source\PSoC5/cyfitter_cfg.c **** ********************************************************************************
 423:Generated_Source\PSoC5/cyfitter_cfg.c **** * Summary:
 424:Generated_Source\PSoC5/cyfitter_cfg.c **** *  This function is used to clear a particular channel from being active on the
 425:Generated_Source\PSoC5/cyfitter_cfg.c **** *  AMux.
 426:Generated_Source\PSoC5/cyfitter_cfg.c **** *
 427:Generated_Source\PSoC5/cyfitter_cfg.c **** * Parameters:  
 428:Generated_Source\PSoC5/cyfitter_cfg.c **** *   channel - The mux channel input to mark inactive
ARM GAS  C:\Users\29928\AppData\Local\Temp\cc0sajyY.s 			page 19


 429:Generated_Source\PSoC5/cyfitter_cfg.c **** *
 430:Generated_Source\PSoC5/cyfitter_cfg.c **** * Return:
 431:Generated_Source\PSoC5/cyfitter_cfg.c **** *   void
 432:Generated_Source\PSoC5/cyfitter_cfg.c **** *
 433:Generated_Source\PSoC5/cyfitter_cfg.c **** *******************************************************************************/
 434:Generated_Source\PSoC5/cyfitter_cfg.c **** void AMux_CYAMUXSIDE_A_Unset(uint8 channel)
 435:Generated_Source\PSoC5/cyfitter_cfg.c **** {
 554              		.loc 1 435 0
 555              		.cfi_startproc
 556              		@ args = 0, pretend = 0, frame = 0
 557              		@ frame_needed = 0, uses_anonymous_args = 0
 558              		@ link register save eliminated.
 559              	.LVL38:
 436:Generated_Source\PSoC5/cyfitter_cfg.c **** 	if (channel < 2)
 560              		.loc 1 436 0
 561 0000 0128     		cmp	r0, #1
 562 0002 08D8     		bhi	.L34
 437:Generated_Source\PSoC5/cyfitter_cfg.c **** 	{
 438:Generated_Source\PSoC5/cyfitter_cfg.c **** 		*AMux_CYAMUXSIDE_A__addrTable[channel] &= (uint8)~AMux_CYAMUXSIDE_A__maskTable[channel];
 563              		.loc 1 438 0
 564 0004 044B     		ldr	r3, .L36
 565 0006 53F82020 		ldr	r2, [r3, r0, lsl #2]
 566 000a 1844     		add	r0, r0, r3
 567              	.LVL39:
 568 000c 017A     		ldrb	r1, [r0, #8]	@ zero_extendqisi2
 569 000e 1378     		ldrb	r3, [r2]	@ zero_extendqisi2
 570 0010 23EA0103 		bic	r3, r3, r1
 571 0014 1370     		strb	r3, [r2]
 572              	.L34:
 573 0016 7047     		bx	lr
 574              	.L37:
 575              		.align	2
 576              	.L36:
 577 0018 00000000 		.word	.LANCHOR0
 578              		.cfi_endproc
 579              	.LFE9:
 580              		.size	AMux_CYAMUXSIDE_A_Unset, .-AMux_CYAMUXSIDE_A_Unset
 581              		.section	.text.AMux_CYAMUXSIDE_B_Set,"ax",%progbits
 582              		.align	2
 583              		.global	AMux_CYAMUXSIDE_B_Set
 584              		.thumb
 585              		.thumb_func
 586              		.type	AMux_CYAMUXSIDE_B_Set, %function
 587              	AMux_CYAMUXSIDE_B_Set:
 588              	.LFB10:
 439:Generated_Source\PSoC5/cyfitter_cfg.c **** 	}
 440:Generated_Source\PSoC5/cyfitter_cfg.c **** }
 441:Generated_Source\PSoC5/cyfitter_cfg.c **** 
 442:Generated_Source\PSoC5/cyfitter_cfg.c **** /* This is an implementation detail of the AMux. Code that depends on it may be
 443:Generated_Source\PSoC5/cyfitter_cfg.c ****    incompatible with other versions of PSoC Creator. */
 444:Generated_Source\PSoC5/cyfitter_cfg.c **** uint8 CYXDATA * const CYCODE AMux_CYAMUXSIDE_B__addrTable[2] = {
 445:Generated_Source\PSoC5/cyfitter_cfg.c **** 	(uint8 CYXDATA *)CYREG_PRT3_AG, 
 446:Generated_Source\PSoC5/cyfitter_cfg.c **** 	(uint8 CYXDATA *)CYREG_PRT0_AG, 
 447:Generated_Source\PSoC5/cyfitter_cfg.c **** };
 448:Generated_Source\PSoC5/cyfitter_cfg.c **** 
 449:Generated_Source\PSoC5/cyfitter_cfg.c **** /* This is an implementation detail of the AMux. Code that depends on it may be
 450:Generated_Source\PSoC5/cyfitter_cfg.c ****    incompatible with other versions of PSoC Creator. */
ARM GAS  C:\Users\29928\AppData\Local\Temp\cc0sajyY.s 			page 20


 451:Generated_Source\PSoC5/cyfitter_cfg.c **** const uint8 CYCODE AMux_CYAMUXSIDE_B__maskTable[2] = {
 452:Generated_Source\PSoC5/cyfitter_cfg.c **** 	0x10u, 
 453:Generated_Source\PSoC5/cyfitter_cfg.c **** 	0x20u, 
 454:Generated_Source\PSoC5/cyfitter_cfg.c **** };
 455:Generated_Source\PSoC5/cyfitter_cfg.c **** 
 456:Generated_Source\PSoC5/cyfitter_cfg.c **** /*******************************************************************************
 457:Generated_Source\PSoC5/cyfitter_cfg.c **** * Function Name: AMux_CYAMUXSIDE_B_Set
 458:Generated_Source\PSoC5/cyfitter_cfg.c **** ********************************************************************************
 459:Generated_Source\PSoC5/cyfitter_cfg.c **** * Summary:
 460:Generated_Source\PSoC5/cyfitter_cfg.c **** *  This function is used to set a particular channel as active on the AMux.
 461:Generated_Source\PSoC5/cyfitter_cfg.c **** *
 462:Generated_Source\PSoC5/cyfitter_cfg.c **** * Parameters:  
 463:Generated_Source\PSoC5/cyfitter_cfg.c **** *   channel - The mux channel input to set as active
 464:Generated_Source\PSoC5/cyfitter_cfg.c **** *
 465:Generated_Source\PSoC5/cyfitter_cfg.c **** * Return:
 466:Generated_Source\PSoC5/cyfitter_cfg.c **** *   void
 467:Generated_Source\PSoC5/cyfitter_cfg.c **** *
 468:Generated_Source\PSoC5/cyfitter_cfg.c **** *******************************************************************************/
 469:Generated_Source\PSoC5/cyfitter_cfg.c **** void AMux_CYAMUXSIDE_B_Set(uint8 channel)
 470:Generated_Source\PSoC5/cyfitter_cfg.c **** {
 589              		.loc 1 470 0
 590              		.cfi_startproc
 591              		@ args = 0, pretend = 0, frame = 0
 592              		@ frame_needed = 0, uses_anonymous_args = 0
 593              		@ link register save eliminated.
 594              	.LVL40:
 471:Generated_Source\PSoC5/cyfitter_cfg.c **** 	if (channel < 2)
 595              		.loc 1 471 0
 596 0000 0128     		cmp	r0, #1
 597 0002 08D8     		bhi	.L38
 472:Generated_Source\PSoC5/cyfitter_cfg.c **** 	{
 473:Generated_Source\PSoC5/cyfitter_cfg.c **** 		*AMux_CYAMUXSIDE_B__addrTable[channel] |= AMux_CYAMUXSIDE_B__maskTable[channel];
 598              		.loc 1 473 0
 599 0004 044B     		ldr	r3, .L40
 600 0006 03EB8002 		add	r2, r3, r0, lsl #2
 601 000a D268     		ldr	r2, [r2, #12]
 602 000c 1844     		add	r0, r0, r3
 603              	.LVL41:
 604 000e 017D     		ldrb	r1, [r0, #20]	@ zero_extendqisi2
 605 0010 1378     		ldrb	r3, [r2]	@ zero_extendqisi2
 606 0012 0B43     		orrs	r3, r3, r1
 607 0014 1370     		strb	r3, [r2]
 608              	.L38:
 609 0016 7047     		bx	lr
 610              	.L41:
 611              		.align	2
 612              	.L40:
 613 0018 00000000 		.word	.LANCHOR0
 614              		.cfi_endproc
 615              	.LFE10:
 616              		.size	AMux_CYAMUXSIDE_B_Set, .-AMux_CYAMUXSIDE_B_Set
 617              		.section	.text.AMux_CYAMUXSIDE_B_Unset,"ax",%progbits
 618              		.align	2
 619              		.global	AMux_CYAMUXSIDE_B_Unset
 620              		.thumb
 621              		.thumb_func
 622              		.type	AMux_CYAMUXSIDE_B_Unset, %function
ARM GAS  C:\Users\29928\AppData\Local\Temp\cc0sajyY.s 			page 21


 623              	AMux_CYAMUXSIDE_B_Unset:
 624              	.LFB11:
 474:Generated_Source\PSoC5/cyfitter_cfg.c **** 	}
 475:Generated_Source\PSoC5/cyfitter_cfg.c **** }
 476:Generated_Source\PSoC5/cyfitter_cfg.c **** 
 477:Generated_Source\PSoC5/cyfitter_cfg.c **** /*******************************************************************************
 478:Generated_Source\PSoC5/cyfitter_cfg.c **** * Function Name: AMux_CYAMUXSIDE_B_Unset
 479:Generated_Source\PSoC5/cyfitter_cfg.c **** ********************************************************************************
 480:Generated_Source\PSoC5/cyfitter_cfg.c **** * Summary:
 481:Generated_Source\PSoC5/cyfitter_cfg.c **** *  This function is used to clear a particular channel from being active on the
 482:Generated_Source\PSoC5/cyfitter_cfg.c **** *  AMux.
 483:Generated_Source\PSoC5/cyfitter_cfg.c **** *
 484:Generated_Source\PSoC5/cyfitter_cfg.c **** * Parameters:  
 485:Generated_Source\PSoC5/cyfitter_cfg.c **** *   channel - The mux channel input to mark inactive
 486:Generated_Source\PSoC5/cyfitter_cfg.c **** *
 487:Generated_Source\PSoC5/cyfitter_cfg.c **** * Return:
 488:Generated_Source\PSoC5/cyfitter_cfg.c **** *   void
 489:Generated_Source\PSoC5/cyfitter_cfg.c **** *
 490:Generated_Source\PSoC5/cyfitter_cfg.c **** *******************************************************************************/
 491:Generated_Source\PSoC5/cyfitter_cfg.c **** void AMux_CYAMUXSIDE_B_Unset(uint8 channel)
 492:Generated_Source\PSoC5/cyfitter_cfg.c **** {
 625              		.loc 1 492 0
 626              		.cfi_startproc
 627              		@ args = 0, pretend = 0, frame = 0
 628              		@ frame_needed = 0, uses_anonymous_args = 0
 629              		@ link register save eliminated.
 630              	.LVL42:
 493:Generated_Source\PSoC5/cyfitter_cfg.c **** 	if (channel < 2)
 631              		.loc 1 493 0
 632 0000 0128     		cmp	r0, #1
 633 0002 09D8     		bhi	.L42
 494:Generated_Source\PSoC5/cyfitter_cfg.c **** 	{
 495:Generated_Source\PSoC5/cyfitter_cfg.c **** 		*AMux_CYAMUXSIDE_B__addrTable[channel] &= (uint8)~AMux_CYAMUXSIDE_B__maskTable[channel];
 634              		.loc 1 495 0
 635 0004 054B     		ldr	r3, .L44
 636 0006 03EB8002 		add	r2, r3, r0, lsl #2
 637 000a D268     		ldr	r2, [r2, #12]
 638 000c 1844     		add	r0, r0, r3
 639              	.LVL43:
 640 000e 017D     		ldrb	r1, [r0, #20]	@ zero_extendqisi2
 641 0010 1378     		ldrb	r3, [r2]	@ zero_extendqisi2
 642 0012 23EA0103 		bic	r3, r3, r1
 643 0016 1370     		strb	r3, [r2]
 644              	.L42:
 645 0018 7047     		bx	lr
 646              	.L45:
 647 001a 00BF     		.align	2
 648              	.L44:
 649 001c 00000000 		.word	.LANCHOR0
 650              		.cfi_endproc
 651              	.LFE11:
 652              		.size	AMux_CYAMUXSIDE_B_Unset, .-AMux_CYAMUXSIDE_B_Unset
 653              		.section	.text.cyfitter_cfg,"ax",%progbits
 654              		.align	2
 655              		.global	cyfitter_cfg
 656              		.thumb
 657              		.thumb_func
ARM GAS  C:\Users\29928\AppData\Local\Temp\cc0sajyY.s 			page 22


 658              		.type	cyfitter_cfg, %function
 659              	cyfitter_cfg:
 660              	.LFB12:
 496:Generated_Source\PSoC5/cyfitter_cfg.c **** 	}
 497:Generated_Source\PSoC5/cyfitter_cfg.c **** }
 498:Generated_Source\PSoC5/cyfitter_cfg.c **** 
 499:Generated_Source\PSoC5/cyfitter_cfg.c **** 
 500:Generated_Source\PSoC5/cyfitter_cfg.c **** 
 501:Generated_Source\PSoC5/cyfitter_cfg.c **** /*******************************************************************************
 502:Generated_Source\PSoC5/cyfitter_cfg.c **** * Function Name: cyfitter_cfg
 503:Generated_Source\PSoC5/cyfitter_cfg.c **** ********************************************************************************
 504:Generated_Source\PSoC5/cyfitter_cfg.c **** * Summary:
 505:Generated_Source\PSoC5/cyfitter_cfg.c **** *  This function is called by the start-up code for the selected device. It
 506:Generated_Source\PSoC5/cyfitter_cfg.c **** *  performs all of the necessary device configuration based on the design
 507:Generated_Source\PSoC5/cyfitter_cfg.c **** *  settings.  This includes settings from the Design Wide Resources (DWR) such
 508:Generated_Source\PSoC5/cyfitter_cfg.c **** *  as Clocks and Pins as well as any component configuration that is necessary.
 509:Generated_Source\PSoC5/cyfitter_cfg.c **** *
 510:Generated_Source\PSoC5/cyfitter_cfg.c **** * Parameters:
 511:Generated_Source\PSoC5/cyfitter_cfg.c **** *   void
 512:Generated_Source\PSoC5/cyfitter_cfg.c **** *
 513:Generated_Source\PSoC5/cyfitter_cfg.c **** * Return:
 514:Generated_Source\PSoC5/cyfitter_cfg.c **** *   void
 515:Generated_Source\PSoC5/cyfitter_cfg.c **** *
 516:Generated_Source\PSoC5/cyfitter_cfg.c **** *******************************************************************************/
 517:Generated_Source\PSoC5/cyfitter_cfg.c **** 
 518:Generated_Source\PSoC5/cyfitter_cfg.c **** void cyfitter_cfg(void)
 519:Generated_Source\PSoC5/cyfitter_cfg.c **** {
 661              		.loc 1 519 0
 662              		.cfi_startproc
 663              		@ args = 0, pretend = 0, frame = 0
 664              		@ frame_needed = 0, uses_anonymous_args = 0
 665 0000 38B5     		push	{r3, r4, r5, lr}
 666              		.cfi_def_cfa_offset 16
 667              		.cfi_offset 3, -16
 668              		.cfi_offset 4, -12
 669              		.cfi_offset 5, -8
 670              		.cfi_offset 14, -4
 520:Generated_Source\PSoC5/cyfitter_cfg.c **** #ifdef CYGlobalIntDisable
 521:Generated_Source\PSoC5/cyfitter_cfg.c **** 	/* Disable interrupts by default. Let user enable if/when they want. */
 522:Generated_Source\PSoC5/cyfitter_cfg.c **** 	CYGlobalIntDisable
 671              		.loc 1 522 0
 672              		.syntax unified
 673              	@ 522 "Generated_Source\PSoC5\cyfitter_cfg.c" 1
 674 0002 72B6     		CPSID   i
 675              	@ 0 "" 2
 523:Generated_Source\PSoC5/cyfitter_cfg.c **** #endif
 524:Generated_Source\PSoC5/cyfitter_cfg.c **** 
 525:Generated_Source\PSoC5/cyfitter_cfg.c **** 	/* Enable/Disable Debug functionality based on settings from System DWR */
 526:Generated_Source\PSoC5/cyfitter_cfg.c **** 	CY_SET_XTND_REG8((void CYFAR *)CYREG_MLOGIC_DEBUG, (CY_GET_XTND_REG8((void CYFAR *)CYREG_MLOGIC_DE
 676              		.loc 1 526 0
 677              		.thumb
 678              		.syntax unified
 679 0004 4D4A     		ldr	r2, .L52
 680 0006 1378     		ldrb	r3, [r2]	@ zero_extendqisi2
 681 0008 43F00403 		orr	r3, r3, #4
 682 000c 1370     		strb	r3, [r2]
 683              	.LVL44:
ARM GAS  C:\Users\29928\AppData\Local\Temp\cc0sajyY.s 			page 23


 684              	.LBB3:
 527:Generated_Source\PSoC5/cyfitter_cfg.c **** 
 528:Generated_Source\PSoC5/cyfitter_cfg.c **** 	{
 529:Generated_Source\PSoC5/cyfitter_cfg.c **** 
 530:Generated_Source\PSoC5/cyfitter_cfg.c **** 		CYPACKED typedef struct {
 531:Generated_Source\PSoC5/cyfitter_cfg.c **** 			void CYFAR *address;
 532:Generated_Source\PSoC5/cyfitter_cfg.c **** 			uint16 size;
 533:Generated_Source\PSoC5/cyfitter_cfg.c **** 		} CYPACKED_ATTR cfg_memset_t;
 534:Generated_Source\PSoC5/cyfitter_cfg.c **** 
 535:Generated_Source\PSoC5/cyfitter_cfg.c **** 
 536:Generated_Source\PSoC5/cyfitter_cfg.c **** 		CYPACKED typedef struct {
 537:Generated_Source\PSoC5/cyfitter_cfg.c **** 			void CYFAR *dest;
 538:Generated_Source\PSoC5/cyfitter_cfg.c **** 			const void CYFAR *src;
 539:Generated_Source\PSoC5/cyfitter_cfg.c **** 			uint16 size;
 540:Generated_Source\PSoC5/cyfitter_cfg.c **** 		} CYPACKED_ATTR cfg_memcpy_t;
 541:Generated_Source\PSoC5/cyfitter_cfg.c **** 
 542:Generated_Source\PSoC5/cyfitter_cfg.c **** 		static const cfg_memset_t CYCODE cfg_memset_list[] = {
 543:Generated_Source\PSoC5/cyfitter_cfg.c **** 			/* address, size */
 544:Generated_Source\PSoC5/cyfitter_cfg.c **** 			{(void CYFAR *)(CYREG_TMR0_CFG0), 12u},
 545:Generated_Source\PSoC5/cyfitter_cfg.c **** 			{(void CYFAR *)(CYREG_PRT4_DR), 48u},
 546:Generated_Source\PSoC5/cyfitter_cfg.c **** 			{(void CYFAR *)(CYDEV_UCFG_B0_P0_U0_BASE), 2688u},
 547:Generated_Source\PSoC5/cyfitter_cfg.c **** 			{(void CYFAR *)(CYDEV_UCFG_B0_P5_ROUTE_BASE), 896u},
 548:Generated_Source\PSoC5/cyfitter_cfg.c **** 			{(void CYFAR *)(CYDEV_UCFG_B0_P7_ROUTE_BASE), 256u},
 549:Generated_Source\PSoC5/cyfitter_cfg.c **** 			{(void CYFAR *)(CYDEV_UCFG_B1_P2_U0_BASE), 2048u},
 550:Generated_Source\PSoC5/cyfitter_cfg.c **** 			{(void CYFAR *)(CYDEV_UCFG_DSI0_BASE), 2560u},
 551:Generated_Source\PSoC5/cyfitter_cfg.c **** 			{(void CYFAR *)(CYDEV_UCFG_DSI12_BASE), 512u},
 552:Generated_Source\PSoC5/cyfitter_cfg.c **** 			{(void CYFAR *)(CYREG_BCTL0_MDCLK_EN), 32u},
 553:Generated_Source\PSoC5/cyfitter_cfg.c **** 		};
 554:Generated_Source\PSoC5/cyfitter_cfg.c **** 
 555:Generated_Source\PSoC5/cyfitter_cfg.c **** 		static const cfg_memcpy_t CYCODE cfg_memcpy_list [] = {
 556:Generated_Source\PSoC5/cyfitter_cfg.c **** 			/* dest, src, size */
 557:Generated_Source\PSoC5/cyfitter_cfg.c **** 			{(void CYFAR *)(CYDEV_UCFG_B0_P5_U1_BASE), BS_UDB_0_3_1_CONFIG_VAL, 128u},
 558:Generated_Source\PSoC5/cyfitter_cfg.c **** 			{(void CYFAR *)(CYDEV_UCFG_B0_P7_U1_BASE), BS_UDB_0_5_1_CONFIG_VAL, 128u},
 559:Generated_Source\PSoC5/cyfitter_cfg.c **** 		};
 560:Generated_Source\PSoC5/cyfitter_cfg.c **** 
 561:Generated_Source\PSoC5/cyfitter_cfg.c **** 		uint8 CYDATA i;
 562:Generated_Source\PSoC5/cyfitter_cfg.c **** 
 563:Generated_Source\PSoC5/cyfitter_cfg.c **** 		/* Zero out critical memory blocks before beginning configuration */
 564:Generated_Source\PSoC5/cyfitter_cfg.c **** 		for (i = 0u; i < (sizeof(cfg_memset_list)/sizeof(cfg_memset_list[0])); i++)
 685              		.loc 1 564 0
 686 000e 0024     		movs	r4, #0
 687 0010 0BE0     		b	.L47
 688              	.LVL45:
 689              	.L48:
 690              	.LBB4:
 565:Generated_Source\PSoC5/cyfitter_cfg.c **** 		{
 566:Generated_Source\PSoC5/cyfitter_cfg.c **** 			const cfg_memset_t CYCODE * CYDATA ms = &cfg_memset_list[i];
 567:Generated_Source\PSoC5/cyfitter_cfg.c **** 			CYMEMZERO(ms->address, (size_t)(uint32)(ms->size));
 691              		.loc 1 567 0 discriminator 3
 692 0012 4B48     		ldr	r0, .L52+4
 693 0014 6300     		lsls	r3, r4, #1
 694 0016 1A19     		adds	r2, r3, r4
 695 0018 5100     		lsls	r1, r2, #1
 696 001a 0144     		add	r1, r1, r0
 697 001c 0A46     		mov	r2, r1
 698 001e 898B     		ldrh	r1, [r1, #28]
 699 0020 9069     		ldr	r0, [r2, #24]	@ unaligned
ARM GAS  C:\Users\29928\AppData\Local\Temp\cc0sajyY.s 			page 24


 700 0022 FFF7FEFF 		bl	CYMEMZERO
 701              	.LVL46:
 702              	.LBE4:
 564:Generated_Source\PSoC5/cyfitter_cfg.c **** 		{
 703              		.loc 1 564 0 discriminator 3
 704 0026 0134     		adds	r4, r4, #1
 705              	.LVL47:
 706 0028 E4B2     		uxtb	r4, r4
 707              	.LVL48:
 708              	.L47:
 564:Generated_Source\PSoC5/cyfitter_cfg.c **** 		{
 709              		.loc 1 564 0 is_stmt 0 discriminator 1
 710 002a 082C     		cmp	r4, #8
 711 002c F1D9     		bls	.L48
 712 002e 0024     		movs	r4, #0
 713              	.LVL49:
 714 0030 0CE0     		b	.L49
 715              	.LVL50:
 716              	.L50:
 717              	.LBB5:
 568:Generated_Source\PSoC5/cyfitter_cfg.c **** 		}
 569:Generated_Source\PSoC5/cyfitter_cfg.c **** 
 570:Generated_Source\PSoC5/cyfitter_cfg.c **** 		/* Copy device configuration data into registers */
 571:Generated_Source\PSoC5/cyfitter_cfg.c **** 		for (i = 0u; i < (sizeof(cfg_memcpy_list)/sizeof(cfg_memcpy_list[0])); i++)
 572:Generated_Source\PSoC5/cyfitter_cfg.c **** 		{
 573:Generated_Source\PSoC5/cyfitter_cfg.c **** 			const cfg_memcpy_t CYCODE * CYDATA mc = &cfg_memcpy_list[i];
 574:Generated_Source\PSoC5/cyfitter_cfg.c **** 			void * CYDATA destPtr = mc->dest;
 718              		.loc 1 574 0 is_stmt 1 discriminator 3
 719 0032 4348     		ldr	r0, .L52+4
 720 0034 A200     		lsls	r2, r4, #2
 721 0036 1119     		adds	r1, r2, r4
 722 0038 4B00     		lsls	r3, r1, #1
 723 003a 0344     		add	r3, r3, r0
 724              	.LVL51:
 575:Generated_Source\PSoC5/cyfitter_cfg.c **** 			const void * CYDATA srcPtr = mc->src;
 576:Generated_Source\PSoC5/cyfitter_cfg.c **** 			uint16 CYDATA numBytes = mc->size;
 577:Generated_Source\PSoC5/cyfitter_cfg.c **** 			CYCONFIGCPY(destPtr, srcPtr, numBytes);
 725              		.loc 1 577 0 discriminator 3
 726 003c B3F85820 		ldrh	r2, [r3, #88]
 727 0040 596D     		ldr	r1, [r3, #84]	@ unaligned
 728              	.LVL52:
 729 0042 186D     		ldr	r0, [r3, #80]	@ unaligned
 730              	.LVL53:
 731 0044 FFF7FEFF 		bl	CYCONFIGCPY
 732              	.LVL54:
 733              	.LBE5:
 571:Generated_Source\PSoC5/cyfitter_cfg.c **** 		{
 734              		.loc 1 571 0 discriminator 3
 735 0048 0134     		adds	r4, r4, #1
 736              	.LVL55:
 737 004a E4B2     		uxtb	r4, r4
 738              	.LVL56:
 739              	.L49:
 571:Generated_Source\PSoC5/cyfitter_cfg.c **** 		{
 740              		.loc 1 571 0 is_stmt 0 discriminator 1
 741 004c 012C     		cmp	r4, #1
 742 004e F0D9     		bls	.L50
ARM GAS  C:\Users\29928\AppData\Local\Temp\cc0sajyY.s 			page 25


 578:Generated_Source\PSoC5/cyfitter_cfg.c **** 		}
 579:Generated_Source\PSoC5/cyfitter_cfg.c **** 
 580:Generated_Source\PSoC5/cyfitter_cfg.c **** 		cfg_write_bytes32(cy_cfg_addr_table, cy_cfg_data_table);
 743              		.loc 1 580 0 is_stmt 1
 744 0050 3C49     		ldr	r1, .L52+8
 745 0052 4FF09040 		mov	r0, #1207959552
 746 0056 FFF7FEFF 		bl	cfg_write_bytes32
 747              	.LVL57:
 581:Generated_Source\PSoC5/cyfitter_cfg.c **** 
 582:Generated_Source\PSoC5/cyfitter_cfg.c **** 		/* Perform normal device configuration. Order is not critical for these items. */
 583:Generated_Source\PSoC5/cyfitter_cfg.c **** 		CY_SET_XTND_REG8((void CYFAR *)(CYREG_DSM0_CR3), 0x0Au);
 748              		.loc 1 583 0
 749 005a 0A24     		movs	r4, #10
 750              	.LVL58:
 751 005c 3A4B     		ldr	r3, .L52+12
 752 005e 1C70     		strb	r4, [r3]
 584:Generated_Source\PSoC5/cyfitter_cfg.c **** 		CYMEMZERO((void CYFAR *)(CYREG_PHUB_CFGMEM0_CFG0), 4u);
 753              		.loc 1 584 0
 754 0060 0421     		movs	r1, #4
 755 0062 3A48     		ldr	r0, .L52+16
 756 0064 FFF7FEFF 		bl	CYMEMZERO
 757              	.LVL59:
 585:Generated_Source\PSoC5/cyfitter_cfg.c **** 		CYCONFIGCPY((void CYFAR *)(CYREG_PHUB_CFGMEM1_CFG0), (const void CYFAR *)(BS_PHUB_CFGMEM1_VAL), 4
 758              		.loc 1 585 0
 759 0068 0422     		movs	r2, #4
 760 006a 3949     		ldr	r1, .L52+20
 761 006c 3948     		ldr	r0, .L52+24
 762 006e FFF7FEFF 		bl	CYCONFIGCPY
 763              	.LVL60:
 586:Generated_Source\PSoC5/cyfitter_cfg.c **** 
 587:Generated_Source\PSoC5/cyfitter_cfg.c **** 		/* B0_P4_U0_CFG24 Starting address: CYDEV_UCFG_B0_P4_U0_CFG24 */
 588:Generated_Source\PSoC5/cyfitter_cfg.c **** 		CY_SET_XTND_REG32((void CYFAR *)(CYREG_B0_P4_U0_CFG24), 0x0C440404u);
 764              		.loc 1 588 0
 765 0072 394A     		ldr	r2, .L52+28
 766 0074 394B     		ldr	r3, .L52+32
 767 0076 1A60     		str	r2, [r3]
 589:Generated_Source\PSoC5/cyfitter_cfg.c **** 
 590:Generated_Source\PSoC5/cyfitter_cfg.c **** 		/* B0_P5_U1_CFG24 Starting address: CYDEV_UCFG_B0_P5_U1_CFG24 */
 591:Generated_Source\PSoC5/cyfitter_cfg.c **** 		CY_SET_XTND_REG32((void CYFAR *)(CYREG_B0_P5_U1_CFG24), 0x44440404u);
 768              		.loc 1 591 0
 769 0078 02F16052 		add	r2, r2, #939524096
 770 007c 03F52073 		add	r3, r3, #640
 771 0080 1A60     		str	r2, [r3]
 592:Generated_Source\PSoC5/cyfitter_cfg.c **** 
 593:Generated_Source\PSoC5/cyfitter_cfg.c **** 		/* B0_P6_U0_CFG24 Starting address: CYDEV_UCFG_B0_P6_U0_CFG24 */
 594:Generated_Source\PSoC5/cyfitter_cfg.c **** 		CY_SET_XTND_REG32((void CYFAR *)(CYREG_B0_P6_U0_CFG24), 0x44000404u);
 772              		.loc 1 594 0
 773 0082 A2F58802 		sub	r2, r2, #4456448
 774 0086 03F5C073 		add	r3, r3, #384
 775 008a 1A60     		str	r2, [r3]
 595:Generated_Source\PSoC5/cyfitter_cfg.c **** 
 596:Generated_Source\PSoC5/cyfitter_cfg.c **** 		/* B0_P7_U1_CFG24 Starting address: CYDEV_UCFG_B0_P7_U1_CFG24 */
 597:Generated_Source\PSoC5/cyfitter_cfg.c **** 		CY_SET_XTND_REG32((void CYFAR *)(CYREG_B0_P7_U1_CFG24), 0x84840404u);
 776              		.loc 1 597 0
 777 008c 02F18142 		add	r2, r2, #1082130432
 778 0090 02F58022 		add	r2, r2, #262144
 779 0094 03F52073 		add	r3, r3, #640
ARM GAS  C:\Users\29928\AppData\Local\Temp\cc0sajyY.s 			page 26


 780 0098 1A60     		str	r2, [r3]
 598:Generated_Source\PSoC5/cyfitter_cfg.c **** 
 599:Generated_Source\PSoC5/cyfitter_cfg.c **** 		/* B1_P4_U0_CFG24 Starting address: CYDEV_UCFG_B1_P4_U0_CFG24 */
 600:Generated_Source\PSoC5/cyfitter_cfg.c **** 		CY_SET_XTND_REG32((void CYFAR *)(CYREG_B1_P4_U0_CFG24), 0x84000404u);
 781              		.loc 1 600 0
 782 009a A2F50402 		sub	r2, r2, #8650752
 783 009e 03F51863 		add	r3, r3, #2432
 784 00a2 1A60     		str	r2, [r3]
 601:Generated_Source\PSoC5/cyfitter_cfg.c **** 
 602:Generated_Source\PSoC5/cyfitter_cfg.c **** 		/* Enable digital routing */
 603:Generated_Source\PSoC5/cyfitter_cfg.c **** 		CY_SET_XTND_REG8((void CYFAR *)CYREG_BCTL0_BANK_CTL, CY_GET_XTND_REG8((void CYFAR *)CYREG_BCTL0_B
 785              		.loc 1 603 0
 786 00a4 2E4A     		ldr	r2, .L52+36
 787 00a6 1378     		ldrb	r3, [r2]	@ zero_extendqisi2
 788 00a8 43F00203 		orr	r3, r3, #2
 789 00ac 1370     		strb	r3, [r2]
 604:Generated_Source\PSoC5/cyfitter_cfg.c **** 		CY_SET_XTND_REG8((void CYFAR *)CYREG_BCTL1_BANK_CTL, CY_GET_XTND_REG8((void CYFAR *)CYREG_BCTL1_B
 790              		.loc 1 604 0
 791 00ae 1032     		adds	r2, r2, #16
 792 00b0 1378     		ldrb	r3, [r2]	@ zero_extendqisi2
 793 00b2 43F00203 		orr	r3, r3, #2
 794 00b6 1370     		strb	r3, [r2]
 605:Generated_Source\PSoC5/cyfitter_cfg.c **** 
 606:Generated_Source\PSoC5/cyfitter_cfg.c **** 		/* Enable UDB array */
 607:Generated_Source\PSoC5/cyfitter_cfg.c **** 		CY_SET_XTND_REG8((void CYFAR *)CYREG_PM_ACT_CFG0, CY_GET_XTND_REG8((void CYFAR *)CYREG_PM_ACT_CFG
 795              		.loc 1 607 0
 796 00b8 2A4D     		ldr	r5, .L52+40
 797 00ba 2B78     		ldrb	r3, [r5]	@ zero_extendqisi2
 798 00bc 43F04003 		orr	r3, r3, #64
 799 00c0 2B70     		strb	r3, [r5]
 608:Generated_Source\PSoC5/cyfitter_cfg.c **** 		CY_SET_XTND_REG8((void CYFAR *)CYREG_PM_AVAIL_CR2, CY_GET_XTND_REG8((void CYFAR *)CYREG_PM_AVAIL_
 800              		.loc 1 608 0
 801 00c2 A2F58632 		sub	r2, r2, #68608
 802 00c6 513A     		subs	r2, r2, #81
 803 00c8 1378     		ldrb	r3, [r2]	@ zero_extendqisi2
 804 00ca 43F01003 		orr	r3, r3, #16
 805 00ce 1370     		strb	r3, [r2]
 806              	.LBE3:
 609:Generated_Source\PSoC5/cyfitter_cfg.c **** 	}
 610:Generated_Source\PSoC5/cyfitter_cfg.c **** 
 611:Generated_Source\PSoC5/cyfitter_cfg.c **** 
 612:Generated_Source\PSoC5/cyfitter_cfg.c **** 	/* Perform second pass device configuration. These items must be configured in specific order afte
 613:Generated_Source\PSoC5/cyfitter_cfg.c **** 	CYCONFIGCPY((void CYFAR *)(CYREG_PRT0_DR), (const void CYFAR *)(BS_IOPINS0_0_VAL), 10u);
 807              		.loc 1 613 0
 808 00d0 2246     		mov	r2, r4
 809 00d2 2549     		ldr	r1, .L52+44
 810 00d4 2548     		ldr	r0, .L52+48
 811 00d6 FFF7FEFF 		bl	CYCONFIGCPY
 812              	.LVL61:
 614:Generated_Source\PSoC5/cyfitter_cfg.c **** 	CYCONFIGCPY((void CYFAR *)(CYREG_PRT12_DR), (const void CYFAR *)(BS_IOPINS0_7_VAL), 10u);
 813              		.loc 1 614 0
 814 00da 2246     		mov	r2, r4
 815 00dc 2449     		ldr	r1, .L52+52
 816 00de 2548     		ldr	r0, .L52+56
 817 00e0 FFF7FEFF 		bl	CYCONFIGCPY
 818              	.LVL62:
 615:Generated_Source\PSoC5/cyfitter_cfg.c **** 	CYCONFIGCPY((void CYFAR *)(CYREG_PRT15_DR), (const void CYFAR *)(BS_IOPINS0_8_VAL), 10u);
ARM GAS  C:\Users\29928\AppData\Local\Temp\cc0sajyY.s 			page 27


 819              		.loc 1 615 0
 820 00e4 2246     		mov	r2, r4
 821 00e6 2449     		ldr	r1, .L52+60
 822 00e8 2448     		ldr	r0, .L52+64
 823 00ea FFF7FEFF 		bl	CYCONFIGCPY
 824              	.LVL63:
 616:Generated_Source\PSoC5/cyfitter_cfg.c **** 	CYCONFIGCPY((void CYFAR *)(CYREG_PRT1_DR), (const void CYFAR *)(BS_IOPINS0_1_VAL), 10u);
 825              		.loc 1 616 0
 826 00ee 2246     		mov	r2, r4
 827 00f0 2349     		ldr	r1, .L52+68
 828 00f2 2448     		ldr	r0, .L52+72
 829 00f4 FFF7FEFF 		bl	CYCONFIGCPY
 830              	.LVL64:
 617:Generated_Source\PSoC5/cyfitter_cfg.c **** 	CYCONFIGCPY((void CYFAR *)(CYREG_PRT2_DM0), (const void CYFAR *)(BS_IOPINS0_2_VAL), 8u);
 831              		.loc 1 617 0
 832 00f8 0822     		movs	r2, #8
 833 00fa 2349     		ldr	r1, .L52+76
 834 00fc 2348     		ldr	r0, .L52+80
 835 00fe FFF7FEFF 		bl	CYCONFIGCPY
 836              	.LVL65:
 618:Generated_Source\PSoC5/cyfitter_cfg.c **** 	CYCONFIGCPY((void CYFAR *)(CYREG_PRT3_DM0), (const void CYFAR *)(BS_IOPINS0_3_VAL), 8u);
 837              		.loc 1 618 0
 838 0102 0822     		movs	r2, #8
 839 0104 2249     		ldr	r1, .L52+84
 840 0106 2348     		ldr	r0, .L52+88
 841 0108 FFF7FEFF 		bl	CYCONFIGCPY
 842              	.LVL66:
 619:Generated_Source\PSoC5/cyfitter_cfg.c **** 	/* Switch Boost to the precision bandgap reference from its internal reference */
 620:Generated_Source\PSoC5/cyfitter_cfg.c **** 	CY_SET_REG8((void CYXDATA *)CYREG_BOOST_CR2, (CY_GET_REG8((void CYXDATA *)CYREG_BOOST_CR2) | 0x08u
 843              		.loc 1 620 0
 844 010c 224A     		ldr	r2, .L52+92
 845 010e 1378     		ldrb	r3, [r2]	@ zero_extendqisi2
 846 0110 43F00803 		orr	r3, r3, #8
 847 0114 1370     		strb	r3, [r2]
 621:Generated_Source\PSoC5/cyfitter_cfg.c **** 
 622:Generated_Source\PSoC5/cyfitter_cfg.c **** 	/* Set Flash Cycles based on max possible frequency in case a glitch occurs during ClockSetup(). *
 623:Generated_Source\PSoC5/cyfitter_cfg.c **** 	CY_SET_XTND_REG8((void CYFAR *)(CYREG_CACHE_CC_CTL), (((CYDEV_INSTRUCT_CACHE_ENABLED) != 0) ? 0x61
 848              		.loc 1 623 0
 849 0116 214C     		ldr	r4, .L52+96
 850 0118 6123     		movs	r3, #97
 851 011a 2370     		strb	r3, [r4]
 624:Generated_Source\PSoC5/cyfitter_cfg.c **** 	/* Setup clocks based on selections from Clock DWR */
 625:Generated_Source\PSoC5/cyfitter_cfg.c **** 	ClockSetup();
 852              		.loc 1 625 0
 853 011c FFF7FEFF 		bl	ClockSetup
 854              	.LVL67:
 626:Generated_Source\PSoC5/cyfitter_cfg.c **** 	/* Set Flash Cycles based on newly configured 24.00MHz Bus Clock. */
 627:Generated_Source\PSoC5/cyfitter_cfg.c **** 	CY_SET_XTND_REG8((void CYFAR *)(CYREG_CACHE_CC_CTL), (((CYDEV_INSTRUCT_CACHE_ENABLED) != 0) ? 0x81
 855              		.loc 1 627 0
 856 0120 8123     		movs	r3, #129
 857 0122 2370     		strb	r3, [r4]
 628:Generated_Source\PSoC5/cyfitter_cfg.c **** 	CY_SET_XTND_REG8((void CYFAR *)(CYREG_PANTHER_WAITPIPE), 0x01u);
 858              		.loc 1 628 0
 859 0124 0122     		movs	r2, #1
 860 0126 1E4B     		ldr	r3, .L52+100
 861 0128 1A70     		strb	r2, [r3]
 629:Generated_Source\PSoC5/cyfitter_cfg.c **** 
ARM GAS  C:\Users\29928\AppData\Local\Temp\cc0sajyY.s 			page 28


 630:Generated_Source\PSoC5/cyfitter_cfg.c **** 	/* Perform basic analog initialization to defaults */
 631:Generated_Source\PSoC5/cyfitter_cfg.c **** 	AnalogSetDefault();
 862              		.loc 1 631 0
 863 012a FFF7FEFF 		bl	AnalogSetDefault
 864              	.LVL68:
 632:Generated_Source\PSoC5/cyfitter_cfg.c **** 
 633:Generated_Source\PSoC5/cyfitter_cfg.c **** 	/* Configure alternate active mode */
 634:Generated_Source\PSoC5/cyfitter_cfg.c **** 	CYCONFIGCPY((void CYFAR *)CYDEV_PM_STBY_BASE, (const void CYFAR *)CYDEV_PM_ACT_BASE, 14u);
 865              		.loc 1 634 0
 866 012e 0E22     		movs	r2, #14
 867 0130 2946     		mov	r1, r5
 868 0132 1C48     		ldr	r0, .L52+104
 869 0134 FFF7FEFF 		bl	CYCONFIGCPY
 870              	.LVL69:
 871 0138 38BD     		pop	{r3, r4, r5, pc}
 872              	.L53:
 873 013a 00BF     		.align	2
 874              	.L52:
 875 013c E8460040 		.word	1073759976
 876 0140 00000000 		.word	.LANCHOR0
 877 0144 AC000048 		.word	1207959724
 878 0148 83580040 		.word	1073764483
 879 014c 00760040 		.word	1073772032
 880 0150 C40F0048 		.word	1207963588
 881 0154 08760040 		.word	1073772040
 882 0158 0404440C 		.word	205784068
 883 015c 58080140 		.word	1073809496
 884 0160 03500140 		.word	1073827843
 885 0164 A0430040 		.word	1073759136
 886 0168 800F0048 		.word	1207963520
 887 016c 00510040 		.word	1073762560
 888 0170 8C0F0048 		.word	1207963532
 889 0174 C0510040 		.word	1073762752
 890 0178 980F0048 		.word	1207963544
 891 017c F0510040 		.word	1073762800
 892 0180 A40F0048 		.word	1207963556
 893 0184 10510040 		.word	1073762576
 894 0188 B00F0048 		.word	1207963568
 895 018c 22510040 		.word	1073762594
 896 0190 B80F0048 		.word	1207963576
 897 0194 32510040 		.word	1073762610
 898 0198 22430040 		.word	1073759010
 899 019c 00480040 		.word	1073760256
 900 01a0 04000840 		.word	1074266116
 901 01a4 B0430040 		.word	1073759152
 902              		.cfi_endproc
 903              	.LFE12:
 904              		.size	cyfitter_cfg, .-cyfitter_cfg
 905              		.global	AMux_CYAMUXSIDE_B__maskTable
 906              		.global	AMux_CYAMUXSIDE_B__addrTable
 907              		.global	AMux_CYAMUXSIDE_A__maskTable
 908              		.global	AMux_CYAMUXSIDE_A__addrTable
 909              		.section	.rodata
 910              		.align	2
 911              		.set	.LANCHOR0,. + 0
 912              		.type	AMux_CYAMUXSIDE_A__addrTable, %object
 913              		.size	AMux_CYAMUXSIDE_A__addrTable, 8
ARM GAS  C:\Users\29928\AppData\Local\Temp\cc0sajyY.s 			page 29


 914              	AMux_CYAMUXSIDE_A__addrTable:
 915 0000 3C510040 		.word	1073762620
 916 0004 0C510040 		.word	1073762572
 917              		.type	AMux_CYAMUXSIDE_A__maskTable, %object
 918              		.size	AMux_CYAMUXSIDE_A__maskTable, 2
 919              	AMux_CYAMUXSIDE_A__maskTable:
 920 0008 20       		.byte	32
 921 0009 10       		.byte	16
 922 000a 0000     		.space	2
 923              		.type	AMux_CYAMUXSIDE_B__addrTable, %object
 924              		.size	AMux_CYAMUXSIDE_B__addrTable, 8
 925              	AMux_CYAMUXSIDE_B__addrTable:
 926 000c 3D510040 		.word	1073762621
 927 0010 0D510040 		.word	1073762573
 928              		.type	AMux_CYAMUXSIDE_B__maskTable, %object
 929              		.size	AMux_CYAMUXSIDE_B__maskTable, 2
 930              	AMux_CYAMUXSIDE_B__maskTable:
 931 0014 10       		.byte	16
 932 0015 20       		.byte	32
 933 0016 0000     		.space	2
 934              		.type	cfg_memset_list.5048, %object
 935              		.size	cfg_memset_list.5048, 54
 936              	cfg_memset_list.5048:
 937 0018 004F0040 		.word	1073762048
 938 001c 0C00     		.short	12
 939 001e 40510040 		.4byte	1073762624
 940 0022 3000     		.short	48
 941 0024 00000140 		.word	1073807360
 942 0028 800A     		.short	2688
 943 002a 000B0140 		.4byte	1073810176
 944 002e 8003     		.short	896
 945 0030 000F0140 		.word	1073811200
 946 0034 0001     		.short	256
 947 0036 00140140 		.4byte	1073812480
 948 003a 0008     		.short	2048
 949 003c 00400140 		.word	1073823744
 950 0040 000A     		.short	2560
 951 0042 004C0140 		.4byte	1073826816
 952 0046 0002     		.short	512
 953 0048 00500140 		.word	1073827840
 954 004c 2000     		.short	32
 955 004e 0000     		.space	2
 956              		.type	cfg_memcpy_list.5049, %object
 957              		.size	cfg_memcpy_list.5049, 20
 958              	cfg_memcpy_list.5049:
 959 0050 800A0140 		.word	1073810048
 960 0054 800E0048 		.word	1207963264
 961 0058 8000     		.short	128
 962 005a 800E0140 		.4byte	1073811072
 963 005e 000F0048 		.4byte	1207963392
 964 0062 8000     		.short	128
 965              		.text
 966              	.Letext0:
 967              		.file 2 "c:\\program files (x86)\\cypress\\psoc creator\\4.4\\psoc creator\\import\\gnu\\arm\\5.4.
 968              		.file 3 "Generated_Source\\PSoC5\\cytypes.h"
 969              		.file 4 "Generated_Source\\PSoC5\\CyLib.h"