ARM GAS  C:\Users\29928\AppData\Local\Temp\cc8d3aqE.s 			page 1


   1              		.syntax unified
   2              		.cpu cortex-m3
   3              		.fpu softvfp
   4              		.eabi_attribute 20, 1
   5              		.eabi_attribute 21, 1
   6              		.eabi_attribute 23, 3
   7              		.eabi_attribute 24, 1
   8              		.eabi_attribute 25, 1
   9              		.eabi_attribute 26, 1
  10              		.eabi_attribute 30, 1
  11              		.eabi_attribute 34, 1
  12              		.eabi_attribute 18, 4
  13              		.thumb
  14              		.syntax unified
  15              		.file	"main.c"
  16              		.text
  17              	.Ltext0:
  18              		.cfi_sections	.debug_frame
  19              		.section	.text.Timer_Interrupt_Handler,"ax",%progbits
  20              		.align	2
  21              		.global	Timer_Interrupt_Handler
  22              		.thumb
  23              		.thumb_func
  24              		.type	Timer_Interrupt_Handler, %function
  25              	Timer_Interrupt_Handler:
  26              	.LFB64:
  27              		.file 1 "main.c"
   1:main.c        **** /* ========================================
   2:main.c        ****  *
   3:main.c        ****  * Copyright YOUR COMPANY, THE YEAR
   4:main.c        ****  * All Rights Reserved
   5:main.c        ****  * UNPUBLISHED, LICENSED SOFTWARE.
   6:main.c        ****  *
   7:main.c        ****  * CONFIDENTIAL AND PROPRIETARY INFORMATION
   8:main.c        ****  * WHICH IS THE PROPERTY OF your company.
   9:main.c        ****  *
  10:main.c        ****  * ========================================
  11:main.c        **** */
  12:main.c        **** #include "project.h"
  13:main.c        **** #include <stdio.h>
  14:main.c        **** #include <math.h>
  15:main.c        **** #include <string.h>
  16:main.c        **** #include <stdbool.h>
  17:main.c        **** #include <unistd.h>
  18:main.c        **** 
  19:main.c        **** 
  20:main.c        **** 
  21:main.c        **** #define ADC_NUM_CHANNELS        4u
  22:main.c        **** #define ADC_SAMPLES_PER_PACKET  1u
  23:main.c        **** #define ADC_SAMPLE_RATE_DIV     10u
  24:main.c        **** #define MAX_PACKET_SIZE         255u
  25:main.c        **** static uint8_t packet[MAX_PACKET_SIZE];
  26:main.c        **** 
  27:main.c        **** 
  28:main.c        **** /* Foreground-background shared variables */
  29:main.c        **** volatile static bool dataReady = false;
  30:main.c        **** volatile static bool checkData = false;
ARM GAS  C:\Users\29928\AppData\Local\Temp\cc8d3aqE.s 			page 2


  31:main.c        **** 
  32:main.c        **** 
  33:main.c        **** static const float32 boundaryToleranceInterval = 0.1;
  34:main.c        **** static const float32 changeToleranceInterval = 0.3;
  35:main.c        **** 
  36:main.c        **** 
  37:main.c        **** volatile static float32 savedADC = 0;
  38:main.c        **** volatile int16_t ADCData[ADC_SAMPLES_PER_PACKET*ADC_NUM_CHANNELS];
  39:main.c        **** 
  40:main.c        **** 
  41:main.c        **** /* Foreground variables */
  42:main.c        **** volatile uint16_t timerCount = 0;
  43:main.c        **** volatile uint16_t timerCountDataCompare = 0;
  44:main.c        **** /* Background variables */
  45:main.c        **** static uint8_t RPI_TX_Buffer[MAX_PACKET_SIZE + 3];
  46:main.c        **** 
  47:main.c        **** static const uint8_t dataGood  =  0x0A;
  48:main.c        **** static const uint8_t testSuccess = 0xA1;
  49:main.c        **** static const uint8_t encryptionErrorCode = 0xF1;
  50:main.c        **** static const uint8_t unreasonableADCValueWarnCodex = 0xF2;
  51:main.c        **** static const uint32_t dataCompareInterval = 500;
  52:main.c        **** 
  53:main.c        **** 
  54:main.c        **** 
  55:main.c        **** /* CRC-8 calculation table */
  56:main.c        **** static const uint8_t crcTable[256] = {
  57:main.c        ****     0x00, 0x07, 0x0E, 0x09, 0x1C, 0x1B, 0x12, 0x15, 0x38, 0x3F, 0x36, 0x31, 0x24, 0x23, 0x2A, 0x2D,
  58:main.c        ****     0x70, 0x77, 0x7E, 0x79, 0x6C, 0x6B, 0x62, 0x65, 0x48, 0x4F, 0x46, 0x41, 0x54, 0x53, 0x5A, 0x5D,
  59:main.c        ****     0xE0, 0xE7, 0xEE, 0xE9, 0xFC, 0xFB, 0xF2, 0xF5, 0xD8, 0xDF, 0xD6, 0xD1, 0xC4, 0xC3, 0xCA, 0xCD,
  60:main.c        ****     0x90, 0x97, 0x9E, 0x99, 0x8C, 0x8B, 0x82, 0x85, 0xA8, 0xAF, 0xA6, 0xA1, 0xB4, 0xB3, 0xBA, 0xBD,
  61:main.c        ****     0xC7, 0xC0, 0xC9, 0xCE, 0xDB, 0xDC, 0xD5, 0xD2, 0xFF, 0xF8, 0xF1, 0xF6, 0xE3, 0xE4, 0xED, 0xEA,
  62:main.c        ****     0xB7, 0xB0, 0xB9, 0xBE, 0xAB, 0xAC, 0xA5, 0xA2, 0x8F, 0x88, 0x81, 0x86, 0x93, 0x94, 0x9D, 0x9A,
  63:main.c        ****     0x27, 0x20, 0x29, 0x2E, 0x3B, 0x3C, 0x35, 0x32, 0x1F, 0x18, 0x11, 0x16, 0x03, 0x04, 0x0D, 0x0A,
  64:main.c        ****     0x57, 0x50, 0x59, 0x5E, 0x4B, 0x4C, 0x45, 0x42, 0x6F, 0x68, 0x61, 0x66, 0x73, 0x74, 0x7D, 0x7A,
  65:main.c        ****     0x89, 0x8E, 0x87, 0x80, 0x95, 0x92, 0x9B, 0x9C, 0xB1, 0xB6, 0xBF, 0xB8, 0xAD, 0xAA, 0xA3, 0xA4,
  66:main.c        ****     0xF9, 0xFE, 0xF7, 0xF0, 0xE5, 0xE2, 0xEB, 0xEC, 0xC1, 0xC6, 0xCF, 0xC8, 0xDD, 0xDA, 0xD3, 0xD4,
  67:main.c        ****     0x69, 0x6E, 0x67, 0x60, 0x75, 0x72, 0x7B, 0x7C, 0x51, 0x56, 0x5F, 0x58, 0x4D, 0x4A, 0x43, 0x44,
  68:main.c        ****     0x19, 0x1E, 0x17, 0x10, 0x05, 0x02, 0x0B, 0x0C, 0x21, 0x26, 0x2F, 0x28, 0x3D, 0x3A, 0x33, 0x34,
  69:main.c        ****     0x4E, 0x49, 0x40, 0x47, 0x52, 0x55, 0x5C, 0x5B, 0x76, 0x71, 0x78, 0x7F, 0x6A, 0x6D, 0x64, 0x63,
  70:main.c        ****     0x3E, 0x39, 0x30, 0x37, 0x22, 0x25, 0x2C, 0x2B, 0x06, 0x01, 0x08, 0x0F, 0x1A, 0x1D, 0x14, 0x13,
  71:main.c        ****     0xAE, 0xA9, 0xA0, 0xA7, 0xB2, 0xB5, 0xBC, 0xBB, 0x96, 0x91, 0x98, 0x9F, 0x8A, 0x8D, 0x84, 0x83,
  72:main.c        ****     0xDE, 0xD9, 0xD0, 0xD7, 0xC2, 0xC5, 0xCC, 0xCB, 0xE6, 0xE1, 0xE8, 0xEF, 0xFA, 0xFD, 0xF4, 0xF3
  73:main.c        **** };
  74:main.c        **** 
  75:main.c        **** 
  76:main.c        **** 
  77:main.c        **** void Timer_Interrupt_Handler(void);
  78:main.c        **** 
  79:main.c        **** uint8_t calculateCRC8(uint8_t opCode, uint8_t dataLength, uint8_t* data);
  80:main.c        **** 
  81:main.c        **** void wrap_data(uint8_t opcode, uint8_t* data, uint8_t length);
  82:main.c        **** 
  83:main.c        **** void float2Bytes(float32 val, uint8_t *bytes_array);
  84:main.c        **** void u16Int2Bytes(uint16_t val, uint8_t *bytes_array);
  85:main.c        **** 
  86:main.c        **** 
  87:main.c        **** 
ARM GAS  C:\Users\29928\AppData\Local\Temp\cc8d3aqE.s 			page 3


  88:main.c        **** CY_ISR (Timer_Interrupt_Handler)
  89:main.c        **** {
  28              		.loc 1 89 0
  29              		.cfi_startproc
  30              		@ args = 0, pretend = 0, frame = 0
  31              		@ frame_needed = 0, uses_anonymous_args = 0
  32 0000 10B5     		push	{r4, lr}
  33              		.cfi_def_cfa_offset 8
  34              		.cfi_offset 4, -8
  35              		.cfi_offset 14, -4
  90:main.c        ****     (void)Timer_ISR_ReadStatusRegister();   // clear interrupt
  36              		.loc 1 90 0
  37 0002 FFF7FEFF 		bl	Timer_ISR_ReadStatusRegister
  38              	.LVL0:
  91:main.c        ****     
  92:main.c        ****     
  93:main.c        ****     timerCount++;
  39              		.loc 1 93 0
  40 0006 214A     		ldr	r2, .L10
  41 0008 1388     		ldrh	r3, [r2]
  42 000a 9BB2     		uxth	r3, r3
  43 000c 0133     		adds	r3, r3, #1
  44 000e 9BB2     		uxth	r3, r3
  45 0010 1380     		strh	r3, [r2]	@ movhi
  94:main.c        ****     timerCountDataCompare++;
  46              		.loc 1 94 0
  47 0012 5388     		ldrh	r3, [r2, #2]
  48 0014 9BB2     		uxth	r3, r3
  49 0016 0133     		adds	r3, r3, #1
  50 0018 9BB2     		uxth	r3, r3
  51 001a 5380     		strh	r3, [r2, #2]	@ movhi
  95:main.c        ****     // Read ADC conversion results with frequency 10 Hz (10 us latency)
  96:main.c        ****     if (timerCount == ADC_SAMPLE_RATE_DIV) {
  52              		.loc 1 96 0
  53 001c 1388     		ldrh	r3, [r2]
  54 001e 9BB2     		uxth	r3, r3
  55 0020 0A2B     		cmp	r3, #10
  56 0022 26D1     		bne	.L2
  57              	.LBB2:
  97:main.c        ****         timerCount = 0;        
  58              		.loc 1 97 0
  59 0024 0020     		movs	r0, #0
  60 0026 1080     		strh	r0, [r2]	@ movhi
  98:main.c        ****         // Check conversion status without blocking
  99:main.c        ****         uint32_t conversionStatus = ADC_TS410_IsEndConversion(ADC_TS410_WAIT_FOR_RESULT);
  61              		.loc 1 99 0
  62 0028 FFF7FEFF 		bl	ADC_TS410_IsEndConversion
  63              	.LVL1:
 100:main.c        ****         if (conversionStatus) {
  64              		.loc 1 100 0
  65 002c 68B9     		cbnz	r0, .L8
  66 002e 0023     		movs	r3, #0
  67 0030 1AE0     		b	.L4
  68              	.LVL2:
  69              	.L5:
  70              	.LBB3:
 101:main.c        ****             for (uint16_t i = 0; i < ADC_NUM_CHANNELS; i++) {
ARM GAS  C:\Users\29928\AppData\Local\Temp\cc8d3aqE.s 			page 4


 102:main.c        ****                 ADCData[i] = ADC_TS410_GetResult16(i);
  71              		.loc 1 102 0 discriminator 3
  72 0032 2046     		mov	r0, r4
  73 0034 FFF7FEFF 		bl	ADC_TS410_GetResult16
  74              	.LVL3:
  75 0038 154B     		ldr	r3, .L10+4
  76 003a 23F81400 		strh	r0, [r3, r4, lsl #1]	@ movhi
 103:main.c        ****                 CyDelay(1); //Delay to leave enough time for ADC conversion
  77              		.loc 1 103 0 discriminator 3
  78 003e 0120     		movs	r0, #1
  79 0040 FFF7FEFF 		bl	CyDelay
  80              	.LVL4:
 101:main.c        ****             for (uint16_t i = 0; i < ADC_NUM_CHANNELS; i++) {
  81              		.loc 1 101 0 discriminator 3
  82 0044 0134     		adds	r4, r4, #1
  83              	.LVL5:
  84 0046 A4B2     		uxth	r4, r4
  85              	.LVL6:
  86 0048 00E0     		b	.L3
  87              	.LVL7:
  88              	.L8:
  89              	.LBE3:
  90 004a 0024     		movs	r4, #0
  91              	.LVL8:
  92              	.L3:
  93              	.LBB4:
 101:main.c        ****             for (uint16_t i = 0; i < ADC_NUM_CHANNELS; i++) {
  94              		.loc 1 101 0 is_stmt 0 discriminator 1
  95 004c 032C     		cmp	r4, #3
  96 004e F0D9     		bls	.L5
  97              	.LBE4:
 104:main.c        ****             }
 105:main.c        ****             dataReady = true;            
  98              		.loc 1 105 0 is_stmt 1
  99 0050 0122     		movs	r2, #1
 100 0052 0E4B     		ldr	r3, .L10
 101 0054 1A71     		strb	r2, [r3, #4]
 106:main.c        ****             // Start next conversion
 107:main.c        ****             ADC_TS410_StartConvert();
 102              		.loc 1 107 0
 103 0056 FFF7FEFF 		bl	ADC_TS410_StartConvert
 104              	.LVL9:
 105 005a 0AE0     		b	.L2
 106              	.LVL10:
 107              	.L6:
 108              	.LBB5:
 108:main.c        ****         }
 109:main.c        ****         else {
 110:main.c        ****             for (uint16_t i = 0; i < ADC_NUM_CHANNELS; i++) {
 111:main.c        ****                 ADCData[i] = 0;
 109              		.loc 1 111 0 discriminator 3
 110 005c 0021     		movs	r1, #0
 111 005e 0C4A     		ldr	r2, .L10+4
 112 0060 22F81310 		strh	r1, [r2, r3, lsl #1]	@ movhi
 110:main.c        ****                 ADCData[i] = 0;
 113              		.loc 1 110 0 discriminator 3
 114 0064 0133     		adds	r3, r3, #1
ARM GAS  C:\Users\29928\AppData\Local\Temp\cc8d3aqE.s 			page 5


 115              	.LVL11:
 116 0066 9BB2     		uxth	r3, r3
 117              	.LVL12:
 118              	.L4:
 110:main.c        ****                 ADCData[i] = 0;
 119              		.loc 1 110 0 is_stmt 0 discriminator 1
 120 0068 032B     		cmp	r3, #3
 121 006a F7D9     		bls	.L6
 122              	.LBE5:
 112:main.c        ****             }
 113:main.c        ****             // printf("error: Conversion not finished yet!");
 114:main.c        ****             CyDelay(5u); // wait 5 ms to signal error
 123              		.loc 1 114 0 is_stmt 1
 124 006c 0520     		movs	r0, #5
 125              	.LVL13:
 126 006e FFF7FEFF 		bl	CyDelay
 127              	.LVL14:
 128              	.L2:
 129              	.LBE2:
 115:main.c        ****         }        
 116:main.c        ****     }
 117:main.c        ****     if(timerCountDataCompare == dataCompareInterval){
 130              		.loc 1 117 0
 131 0072 064B     		ldr	r3, .L10
 132 0074 5B88     		ldrh	r3, [r3, #2]
 133 0076 9BB2     		uxth	r3, r3
 134 0078 B3F5FA7F 		cmp	r3, #500
 135 007c 04D1     		bne	.L1
 118:main.c        ****         timerCountDataCompare = 0; 
 136              		.loc 1 118 0
 137 007e 034B     		ldr	r3, .L10
 138 0080 0022     		movs	r2, #0
 139 0082 5A80     		strh	r2, [r3, #2]	@ movhi
 119:main.c        ****         checkData = true;
 140              		.loc 1 119 0
 141 0084 0122     		movs	r2, #1
 142 0086 5A71     		strb	r2, [r3, #5]
 143              	.L1:
 144 0088 10BD     		pop	{r4, pc}
 145              	.L11:
 146 008a 00BF     		.align	2
 147              	.L10:
 148 008c 00000000 		.word	.LANCHOR0
 149 0090 00000000 		.word	ADCData
 150              		.cfi_endproc
 151              	.LFE64:
 152              		.size	Timer_Interrupt_Handler, .-Timer_Interrupt_Handler
 153              		.section	.text.float2Bytes,"ax",%progbits
 154              		.align	2
 155              		.global	float2Bytes
 156              		.thumb
 157              		.thumb_func
 158              		.type	float2Bytes, %function
 159              	float2Bytes:
 160              	.LFB67:
 120:main.c        ****     }
 121:main.c        ****   
ARM GAS  C:\Users\29928\AppData\Local\Temp\cc8d3aqE.s 			page 6


 122:main.c        ****     
 123:main.c        ****     /*static uint16_t div = 0;                // divide the tick rate
 124:main.c        ****     if (++div >= 100) {                     // e.g., at 1 kHz tick -> ~1 Hz blink
 125:main.c        ****         div = 0;
 126:main.c        ****         USER_LED_Write( (uint8)(!USER_LED_ReadDataReg()) );  // toggle
 127:main.c        ****         // If LED is active-low and you want “1 = on”, invert here as needed.
 128:main.c        ****     }*/
 129:main.c        **** }
 130:main.c        **** 
 131:main.c        **** 
 132:main.c        **** int main(void)
 133:main.c        **** {
 134:main.c        ****     
 135:main.c        ****     CyGlobalIntEnable; /* Enable global interrupts. */
 136:main.c        ****     uint8_t packetsize = 0;
 137:main.c        ****     
 138:main.c        ****     /*Initialize UART from OEM to PSOC, and from PSOC to RPI-5*/
 139:main.c        ****     UART_Debug_Start();
 140:main.c        ****     UART_OEM_Start();
 141:main.c        ****     UART_RPI_Start();
 142:main.c        **** 
 143:main.c        ****     UART_Debug_PutString("Hello World!\r\n");
 144:main.c        ****     /*Testing the UART Connection to RPI-5*/
 145:main.c        ****     RPI_TX_Buffer[0] = 0xA1;
 146:main.c        ****     UART_RPI_PutArray(RPI_TX_Buffer,1);
 147:main.c        ****     
 148:main.c        ****     /*Initialize the ADC that converts TS410 amplified signal, and ADC that converts low voltage si
 149:main.c        ****     ADC_TS410_Start();
 150:main.c        ****     ADC_DelSig_Start();
 151:main.c        ****     
 152:main.c        ****     /*Set up the NVIC vector of the ISR that would be called 10ms later*/
 153:main.c        ****     Timer_Interrupt_StartEx(Timer_Interrupt_Handler);
 154:main.c        ****     
 155:main.c        ****     ADC_TS410_StartConvert();
 156:main.c        ****     ADC_DelSig_StartConvert();
 157:main.c        ****     
 158:main.c        ****     
 159:main.c        **** 
 160:main.c        ****     Timer_ISR_Start();
 161:main.c        ****     
 162:main.c        **** 
 163:main.c        ****     
 164:main.c        ****     for(;;)
 165:main.c        ****     {   
 166:main.c        ****         /*Start packing only after all the required data are ready to send*/
 167:main.c        ****         //printf("I hate this world\r\n");
 168:main.c        ****         //UART_Debug_PutString("I hate this world\r\n");
 169:main.c        ****         if(dataReady == true){
 170:main.c        ****             dataReady = false;
 171:main.c        ****             packetsize = 0;
 172:main.c        ****             uint8_t opcode = dataGood;
 173:main.c        ****             for (uint8_t i = 0; i < ADC_NUM_CHANNELS; i++) {
 174:main.c        ****                 /*Converting the count value read by ADC to float32 voltage*/
 175:main.c        ****                 char buf_2[64];
 176:main.c        ****                 int n_2 = snprintf(buf_2, sizeof(buf_2), "Original Channel %d: V=%d V\r\n", i, ADCD
 177:main.c        ****                 UART_Debug_PutString(buf_2);   // or *_PutString(buf) if null-terminated
 178:main.c        ****                 UART_Debug_PutString("\r\n");   // or *_PutString(buf) if null-terminated
ARM GAS  C:\Users\29928\AppData\Local\Temp\cc8d3aqE.s 			page 7


 179:main.c        ****                 float32 ADCVolts = /*(3.3/2.739) *  */ ADC_TS410_CountsTo_Volts(ADCData[i]);
 180:main.c        ****                 /*Check if data flucaute a lot, if so send warning OPCODE, currently it only checks
 181:main.c        ****                 if(checkData == true){
 182:main.c        ****                     if(i == ADC_NUM_CHANNELS){
 183:main.c        ****                         checkData = false;
 184:main.c        ****                         if(savedADC!=0 && (savedADC >= ADCVolts + changeToleranceInterval || savedA
 185:main.c        ****                             opcode = 0xF3;
 186:main.c        ****                         }
 187:main.c        ****                         savedADC = ADCVolts;
 188:main.c        ****                     }
 189:main.c        ****                 }
 190:main.c        ****                 /*If ADC value is out of boundary, there might be calibration or hardware setup iss
 191:main.c        ****                 if(ADCVolts > (3.3 + boundaryToleranceInterval) || ADCVolts < (0 - boundaryToleranc
 192:main.c        ****                     opcode = unreasonableADCValueWarnCodex;
 193:main.c        ****                 }
 194:main.c        ****                 /*Pack ADC value to the data packet that would be later sent to RPI through UART*/
 195:main.c        ****                 float2Bytes(ADCVolts, &packet[packetsize]);
 196:main.c        ****                 packetsize += sizeof(float32);
 197:main.c        ****                 //printf("\r\nHoho\r\n");
 198:main.c        ****                 //int n = snprintf(buf, sizeof(buf), "ch=%u value=%f\r\n", i, ADCVolts);
 199:main.c        ****                 char buf[64];
 200:main.c        ****                 int n = snprintf(buf, sizeof(buf), "Channel %d: V=%.3f V\r\n", i, ADCVolts);
 201:main.c        ****                 UART_Debug_PutString(buf);   // or *_PutString(buf) if null-terminated
 202:main.c        ****                 UART_Debug_PutString("\r\n");   // or *_PutString(buf) if null-terminated
 203:main.c        ****                 //printf("ADC %d: %f, ", i, ADCVolts);
 204:main.c        ****             }
 205:main.c        ****             //USBUART_1_PutString("\r\n");
 206:main.c        ****             
 207:main.c        ****             wrap_data(opcode, packet, packetsize);
 208:main.c        ****         }
 209:main.c        ****         
 210:main.c        ****         //USER_LED_Write(1);
 211:main.c        ****         //CyDelay(1000);
 212:main.c        ****         //USER_LED_Write(0);
 213:main.c        ****         //CyDelay(1000);
 214:main.c        ****     }
 215:main.c        **** }
 216:main.c        **** 
 217:main.c        **** 
 218:main.c        **** 
 219:main.c        **** 
 220:main.c        **** 
 221:main.c        **** 
 222:main.c        **** 
 223:main.c        **** /**
 224:main.c        ****  * @brief Populate buffer with metadata and data and start transmission
 225:main.c        ****  * 
 226:main.c        ****  * @param uint8_t opcode - type of transmission TODO: replace with enum
 227:main.c        ****  * @param uint8_t *data - pointer to buffer containing data to send
 228:main.c        ****  * @param uint8_t length - number of bytes in data (0-255) 
 229:main.c        ****  *
 230:main.c        ****  * @note Buffer being transmitted must be constant and allocated until transmit operation completes
 231:main.c        **** */
 232:main.c        **** void wrap_data(uint8_t opcode, uint8_t* data, uint8_t length){
 233:main.c        ****         // Ensure previous transmission is not ongoing before modifying transmit buffer
 234:main.c        ****     //printf("Try to send data \r\n");
 235:main.c        ****     
ARM GAS  C:\Users\29928\AppData\Local\Temp\cc8d3aqE.s 			page 8


 236:main.c        ****         // wait until SW buffer drained
 237:main.c        ****     while (UART_RPI_GetTxBufferSize() != 0u) {
 238:main.c        ****         USER_LED_Write(1);
 239:main.c        ****         CyDelay(5);
 240:main.c        ****     }
 241:main.c        **** 
 242:main.c        ****     // wait until HW FIFO empty
 243:main.c        ****     while ((UART_RPI_ReadTxStatus() & UART_RPI_TX_STS_FIFO_EMPTY) == 0u) {
 244:main.c        ****         
 245:main.c        ****         USER_LED_Write(1);
 246:main.c        ****         CyDelay(5);
 247:main.c        ****     }
 248:main.c        **** 
 249:main.c        ****     // wait until last bit shifted out on the line
 250:main.c        ****     
 251:main.c        ****     
 252:main.c        ****     /*while ((UART_RPI_ReadTxStatus() & UART_RPI_TX_STS_COMPLETE) == 0u) { 
 253:main.c        ****         
 254:main.c        ****         USER_LED_Write(1);
 255:main.c        ****         CyDelay(5);
 256:main.c        ****     }*/
 257:main.c        ****     
 258:main.c        ****     RPI_TX_Buffer[0] = opcode;
 259:main.c        ****     RPI_TX_Buffer[1] = length;
 260:main.c        ****     memcpy(&RPI_TX_Buffer[2], data, length);
 261:main.c        ****     RPI_TX_Buffer[2 + length] = calculateCRC8(opcode, length, data);
 262:main.c        ****     USER_LED_Write(0);   // drive high -> LED OFF
 263:main.c        ****     UART_RPI_PutArray(RPI_TX_Buffer, 2 + length + 1);
 264:main.c        ****     
 265:main.c        ****     
 266:main.c        ****     //printf("Sent data \r\n");
 267:main.c        ****     
 268:main.c        ****     // demo only
 269:main.c        ****     //printf("\r\n\nopcode: %d, length: %d, crc: 0x%x\r\n", opcode, length, txBuffer[2 + length]); 
 270:main.c        **** }
 271:main.c        **** 
 272:main.c        **** 
 273:main.c        **** 
 274:main.c        **** 
 275:main.c        **** 
 276:main.c        **** /**
 277:main.c        ****  * @brief Helper function for main background loop converting float to uint8_t array
 278:main.c        ****  * 
 279:main.c        ****  * @author <Floris> - https://stackoverflow.com/questions/24420246/c-function-to-convert-float-to-b
 280:main.c        ****  * 
 281:main.c        ****  * @param float32_t val - single precision float value to be converted to uint8_t array of length 4
 282:main.c        ****  * @param uint8_t *bytesArray - pointer to uint8_t array in memory
 283:main.c        ****  *
 284:main.c        ****  * @return none
 285:main.c        **** */
 286:main.c        **** void float2Bytes(float32 val, uint8_t *bytes_array) {
 161              		.loc 1 286 0
 162              		.cfi_startproc
 163              		@ args = 0, pretend = 0, frame = 8
 164              		@ frame_needed = 0, uses_anonymous_args = 0
 165              		@ link register save eliminated.
 166              	.LVL15:
ARM GAS  C:\Users\29928\AppData\Local\Temp\cc8d3aqE.s 			page 9


 167 0000 82B0     		sub	sp, sp, #8
 168              		.cfi_def_cfa_offset 8
 287:main.c        ****     // Create union of shared memory space
 288:main.c        ****     union {
 289:main.c        ****         float32 float_variable;
 290:main.c        ****         uint8_t temp_array[4];
 291:main.c        ****     } u;
 292:main.c        ****     // Overite bytes of union with float variable
 293:main.c        ****     u.float_variable = val;
 294:main.c        ****     // Assign bytes to input array
 295:main.c        ****     memcpy(bytes_array, u.temp_array, 4);
 169              		.loc 1 295 0
 170 0002 02AB     		add	r3, sp, #8
 171 0004 43F8040D 		str	r0, [r3, #-4]!
 172 0008 1868     		ldr	r0, [r3]	@ unaligned
 173              	.LVL16:
 174 000a 0860     		str	r0, [r1]	@ unaligned
 296:main.c        **** }
 175              		.loc 1 296 0
 176 000c 02B0     		add	sp, sp, #8
 177              		.cfi_def_cfa_offset 0
 178              		@ sp needed
 179 000e 7047     		bx	lr
 180              		.cfi_endproc
 181              	.LFE67:
 182              		.size	float2Bytes, .-float2Bytes
 183              		.section	.text.u16Int2Bytes,"ax",%progbits
 184              		.align	2
 185              		.global	u16Int2Bytes
 186              		.thumb
 187              		.thumb_func
 188              		.type	u16Int2Bytes, %function
 189              	u16Int2Bytes:
 190              	.LFB68:
 297:main.c        **** 
 298:main.c        **** /**
 299:main.c        ****  * @brief Helper function for main background loop converting uint16_t to uint8_t array
 300:main.c        ****  *
 301:main.c        ****  * @note based on float2Bytes
 302:main.c        ****  * @return none
 303:main.c        **** */
 304:main.c        **** void u16Int2Bytes(uint16_t val, uint8_t *bytes_array) {
 191              		.loc 1 304 0
 192              		.cfi_startproc
 193              		@ args = 0, pretend = 0, frame = 8
 194              		@ frame_needed = 0, uses_anonymous_args = 0
 195              		@ link register save eliminated.
 196              	.LVL17:
 197 0000 82B0     		sub	sp, sp, #8
 198              		.cfi_def_cfa_offset 8
 305:main.c        ****     // Create union of shared memory space
 306:main.c        ****     union {
 307:main.c        ****         uint16_t int_variable;
 308:main.c        ****         uint8_t temp_array[2];
 309:main.c        ****     } u;
 310:main.c        ****     // Overite bytes of union with float variable
 311:main.c        ****     u.int_variable = val;
ARM GAS  C:\Users\29928\AppData\Local\Temp\cc8d3aqE.s 			page 10


 312:main.c        ****     // Assign bytes to input array
 313:main.c        ****     memcpy(bytes_array, u.temp_array, 2);
 199              		.loc 1 313 0
 200 0002 02AB     		add	r3, sp, #8
 201 0004 23F8040D 		strh	r0, [r3, #-4]!	@ movhi
 202 0008 1B88     		ldrh	r3, [r3]	@ unaligned
 203 000a 0B80     		strh	r3, [r1]	@ unaligned
 314:main.c        **** }
 204              		.loc 1 314 0
 205 000c 02B0     		add	sp, sp, #8
 206              		.cfi_def_cfa_offset 0
 207              		@ sp needed
 208 000e 7047     		bx	lr
 209              		.cfi_endproc
 210              	.LFE68:
 211              		.size	u16Int2Bytes, .-u16Int2Bytes
 212              		.section	.text.calculateCRC8,"ax",%progbits
 213              		.align	2
 214              		.global	calculateCRC8
 215              		.thumb
 216              		.thumb_func
 217              		.type	calculateCRC8, %function
 218              	calculateCRC8:
 219              	.LFB69:
 315:main.c        **** 
 316:main.c        **** 
 317:main.c        **** 
 318:main.c        **** /* Helper functions */
 319:main.c        **** /**
 320:main.c        ****  * @brief calculates the CRC8 for an outgoing UART packet
 321:main.c        ****  * 
 322:main.c        ****  * @param uint8_t opCode - the operation type of the outgoing packet
 323:main.c        ****  * @param uint8_t dataLength - the length of the payload to send
 324:main.c        ****  * @param uint8_t *data - pointer to an array of the Tx payload bytes
 325:main.c        ****  *
 326:main.c        ****  * @return uint8_t - calculated CRC byte from input parameters
 327:main.c        ****  * @note Helper function for wrap_data()
 328:main.c        **** */
 329:main.c        **** uint8_t calculateCRC8(uint8_t opCode, uint8_t dataLength, uint8_t* data) {
 220              		.loc 1 329 0
 221              		.cfi_startproc
 222              		@ args = 0, pretend = 0, frame = 0
 223              		@ frame_needed = 0, uses_anonymous_args = 0
 224              		@ link register save eliminated.
 225              	.LVL18:
 226 0000 10B4     		push	{r4}
 227              		.cfi_def_cfa_offset 4
 228              		.cfi_offset 4, -4
 229              	.LVL19:
 330:main.c        ****   uint8_t crc = 0x00; // Initialize CRC value
 331:main.c        **** 
 332:main.c        ****   // Update CRC with the opcode
 333:main.c        ****   crc = crcTable[crc ^ opCode];
 230              		.loc 1 333 0
 231 0002 084C     		ldr	r4, .L20
 232 0004 235C     		ldrb	r3, [r4, r0]	@ zero_extendqisi2
 233              	.LVL20:
ARM GAS  C:\Users\29928\AppData\Local\Temp\cc8d3aqE.s 			page 11


 334:main.c        ****   
 335:main.c        ****   // Update CRC with the data length
 336:main.c        ****   crc = crcTable[crc ^ dataLength];
 234              		.loc 1 336 0
 235 0006 4B40     		eors	r3, r3, r1
 236              	.LVL21:
 237 0008 E05C     		ldrb	r0, [r4, r3]	@ zero_extendqisi2
 238              	.LVL22:
 239              	.LBB6:
 337:main.c        ****   
 338:main.c        ****   // Update CRC with each data byte
 339:main.c        ****   for (uint8_t i = 0; i < dataLength; i++) {
 240              		.loc 1 339 0
 241 000a 0023     		movs	r3, #0
 242 000c 05E0     		b	.L17
 243              	.LVL23:
 244              	.L18:
 340:main.c        ****     crc = crcTable[crc ^ data[i]];
 245              		.loc 1 340 0 discriminator 3
 246 000e D45C     		ldrb	r4, [r2, r3]	@ zero_extendqisi2
 247 0010 6040     		eors	r0, r0, r4
 248              	.LVL24:
 249 0012 044C     		ldr	r4, .L20
 250 0014 205C     		ldrb	r0, [r4, r0]	@ zero_extendqisi2
 251              	.LVL25:
 339:main.c        ****     crc = crcTable[crc ^ data[i]];
 252              		.loc 1 339 0 discriminator 3
 253 0016 0133     		adds	r3, r3, #1
 254              	.LVL26:
 255 0018 DBB2     		uxtb	r3, r3
 256              	.LVL27:
 257              	.L17:
 339:main.c        ****     crc = crcTable[crc ^ data[i]];
 258              		.loc 1 339 0 is_stmt 0 discriminator 1
 259 001a 8B42     		cmp	r3, r1
 260 001c F7D3     		bcc	.L18
 261              	.LBE6:
 341:main.c        ****   }
 342:main.c        **** 
 343:main.c        ****   return crc;
 344:main.c        **** }
 262              		.loc 1 344 0 is_stmt 1
 263 001e 10BC     		pop	{r4}
 264              		.cfi_restore 4
 265              		.cfi_def_cfa_offset 0
 266 0020 7047     		bx	lr
 267              	.L21:
 268 0022 00BF     		.align	2
 269              	.L20:
 270 0024 00000000 		.word	.LANCHOR1
 271              		.cfi_endproc
 272              	.LFE69:
 273              		.size	calculateCRC8, .-calculateCRC8
 274              		.section	.text.wrap_data,"ax",%progbits
 275              		.align	2
 276              		.global	wrap_data
 277              		.thumb
ARM GAS  C:\Users\29928\AppData\Local\Temp\cc8d3aqE.s 			page 12


 278              		.thumb_func
 279              		.type	wrap_data, %function
 280              	wrap_data:
 281              	.LFB66:
 232:main.c        ****         // Ensure previous transmission is not ongoing before modifying transmit buffer
 282              		.loc 1 232 0
 283              		.cfi_startproc
 284              		@ args = 0, pretend = 0, frame = 0
 285              		@ frame_needed = 0, uses_anonymous_args = 0
 286              	.LVL28:
 287 0000 2DE9F041 		push	{r4, r5, r6, r7, r8, lr}
 288              		.cfi_def_cfa_offset 24
 289              		.cfi_offset 4, -24
 290              		.cfi_offset 5, -20
 291              		.cfi_offset 6, -16
 292              		.cfi_offset 7, -12
 293              		.cfi_offset 8, -8
 294              		.cfi_offset 14, -4
 295 0004 0746     		mov	r7, r0
 296 0006 8846     		mov	r8, r1
 297 0008 1446     		mov	r4, r2
 237:main.c        ****         USER_LED_Write(1);
 298              		.loc 1 237 0
 299 000a 05E0     		b	.L23
 300              	.LVL29:
 301              	.L24:
 238:main.c        ****         CyDelay(5);
 302              		.loc 1 238 0
 303 000c 0120     		movs	r0, #1
 304 000e FFF7FEFF 		bl	USER_LED_Write
 305              	.LVL30:
 239:main.c        ****     }
 306              		.loc 1 239 0
 307 0012 0520     		movs	r0, #5
 308 0014 FFF7FEFF 		bl	CyDelay
 309              	.LVL31:
 310              	.L23:
 237:main.c        ****         USER_LED_Write(1);
 311              		.loc 1 237 0
 312 0018 FFF7FEFF 		bl	UART_RPI_GetTxBufferSize
 313              	.LVL32:
 314 001c 0028     		cmp	r0, #0
 315 001e F5D1     		bne	.L24
 316 0020 05E0     		b	.L25
 317              	.L26:
 245:main.c        ****         CyDelay(5);
 318              		.loc 1 245 0
 319 0022 0120     		movs	r0, #1
 320 0024 FFF7FEFF 		bl	USER_LED_Write
 321              	.LVL33:
 246:main.c        ****     }
 322              		.loc 1 246 0
 323 0028 0520     		movs	r0, #5
 324 002a FFF7FEFF 		bl	CyDelay
 325              	.LVL34:
 326              	.L25:
 243:main.c        ****         
ARM GAS  C:\Users\29928\AppData\Local\Temp\cc8d3aqE.s 			page 13


 327              		.loc 1 243 0
 328 002e FFF7FEFF 		bl	UART_RPI_ReadTxStatus
 329              	.LVL35:
 330 0032 10F0020F 		tst	r0, #2
 331 0036 F4D0     		beq	.L26
 258:main.c        ****     RPI_TX_Buffer[1] = length;
 332              		.loc 1 258 0
 333 0038 0D4D     		ldr	r5, .L28
 334 003a 2F72     		strb	r7, [r5, #8]
 259:main.c        ****     memcpy(&RPI_TX_Buffer[2], data, length);
 335              		.loc 1 259 0
 336 003c 6C72     		strb	r4, [r5, #9]
 260:main.c        ****     RPI_TX_Buffer[2 + length] = calculateCRC8(opcode, length, data);
 337              		.loc 1 260 0
 338 003e 2246     		mov	r2, r4
 339 0040 4146     		mov	r1, r8
 340 0042 05F10A00 		add	r0, r5, #10
 341 0046 FFF7FEFF 		bl	memcpy
 342              	.LVL36:
 261:main.c        ****     USER_LED_Write(0);   // drive high -> LED OFF
 343              		.loc 1 261 0
 344 004a A61C     		adds	r6, r4, #2
 345 004c 4246     		mov	r2, r8
 346 004e 2146     		mov	r1, r4
 347 0050 3846     		mov	r0, r7
 348 0052 FFF7FEFF 		bl	calculateCRC8
 349              	.LVL37:
 350 0056 3544     		add	r5, r5, r6
 351 0058 2872     		strb	r0, [r5, #8]
 262:main.c        ****     UART_RPI_PutArray(RPI_TX_Buffer, 2 + length + 1);
 352              		.loc 1 262 0
 353 005a 0020     		movs	r0, #0
 354 005c FFF7FEFF 		bl	USER_LED_Write
 355              	.LVL38:
 263:main.c        ****     
 356              		.loc 1 263 0
 357 0060 E11C     		adds	r1, r4, #3
 358 0062 C9B2     		uxtb	r1, r1
 359 0064 0348     		ldr	r0, .L28+4
 360 0066 FFF7FEFF 		bl	UART_RPI_PutArray
 361              	.LVL39:
 362 006a BDE8F081 		pop	{r4, r5, r6, r7, r8, pc}
 363              	.LVL40:
 364              	.L29:
 365 006e 00BF     		.align	2
 366              	.L28:
 367 0070 00000000 		.word	.LANCHOR0
 368 0074 08000000 		.word	.LANCHOR0+8
 369              		.cfi_endproc
 370              	.LFE66:
 371              		.size	wrap_data, .-wrap_data
 372              		.global	__aeabi_fcmpeq
 373              		.global	__aeabi_fadd
 374              		.global	__aeabi_fcmple
 375              		.global	__aeabi_fsub
 376              		.global	__aeabi_fcmpge
 377              		.global	__aeabi_f2d
ARM GAS  C:\Users\29928\AppData\Local\Temp\cc8d3aqE.s 			page 14


 378              		.global	__aeabi_dcmpgt
 379              		.global	__aeabi_fcmplt
 380              		.section	.text.main,"ax",%progbits
 381              		.align	2
 382              		.global	main
 383              		.thumb
 384              		.thumb_func
 385              		.type	main, %function
 386              	main:
 387              	.LFB65:
 133:main.c        ****     
 388              		.loc 1 133 0
 389              		.cfi_startproc
 390              		@ args = 0, pretend = 0, frame = 128
 391              		@ frame_needed = 0, uses_anonymous_args = 0
 392 0000 2DE9F047 		push	{r4, r5, r6, r7, r8, r9, r10, lr}
 393              		.cfi_def_cfa_offset 32
 394              		.cfi_offset 4, -32
 395              		.cfi_offset 5, -28
 396              		.cfi_offset 6, -24
 397              		.cfi_offset 7, -20
 398              		.cfi_offset 8, -16
 399              		.cfi_offset 9, -12
 400              		.cfi_offset 10, -8
 401              		.cfi_offset 14, -4
 402 0004 A2B0     		sub	sp, sp, #136
 403              		.cfi_def_cfa_offset 168
 135:main.c        ****     uint8_t packetsize = 0;
 404              		.loc 1 135 0
 405              		.syntax unified
 406              	@ 135 "main.c" 1
 407 0006 62B6     		CPSIE   i
 408              	@ 0 "" 2
 409              	.LVL41:
 139:main.c        ****     UART_OEM_Start();
 410              		.loc 1 139 0
 411              		.thumb
 412              		.syntax unified
 413 0008 FFF7FEFF 		bl	UART_Debug_Start
 414              	.LVL42:
 140:main.c        ****     UART_RPI_Start();
 415              		.loc 1 140 0
 416 000c FFF7FEFF 		bl	UART_OEM_Start
 417              	.LVL43:
 141:main.c        **** 
 418              		.loc 1 141 0
 419 0010 FFF7FEFF 		bl	UART_RPI_Start
 420              	.LVL44:
 143:main.c        ****     /*Testing the UART Connection to RPI-5*/
 421              		.loc 1 143 0
 422 0014 4E48     		ldr	r0, .L45+8
 423 0016 FFF7FEFF 		bl	UART_Debug_PutString
 424              	.LVL45:
 145:main.c        ****     UART_RPI_PutArray(RPI_TX_Buffer,1);
 425              		.loc 1 145 0
 426 001a 4E48     		ldr	r0, .L45+12
 427 001c A123     		movs	r3, #161
ARM GAS  C:\Users\29928\AppData\Local\Temp\cc8d3aqE.s 			page 15


 428 001e 00F8083F 		strb	r3, [r0, #8]!
 146:main.c        ****     
 429              		.loc 1 146 0
 430 0022 0121     		movs	r1, #1
 431 0024 FFF7FEFF 		bl	UART_RPI_PutArray
 432              	.LVL46:
 149:main.c        ****     ADC_DelSig_Start();
 433              		.loc 1 149 0
 434 0028 FFF7FEFF 		bl	ADC_TS410_Start
 435              	.LVL47:
 150:main.c        ****     
 436              		.loc 1 150 0
 437 002c FFF7FEFF 		bl	ADC_DelSig_Start
 438              	.LVL48:
 153:main.c        ****     
 439              		.loc 1 153 0
 440 0030 4948     		ldr	r0, .L45+16
 441 0032 FFF7FEFF 		bl	Timer_Interrupt_StartEx
 442              	.LVL49:
 155:main.c        ****     ADC_DelSig_StartConvert();
 443              		.loc 1 155 0
 444 0036 FFF7FEFF 		bl	ADC_TS410_StartConvert
 445              	.LVL50:
 156:main.c        ****     
 446              		.loc 1 156 0
 447 003a FFF7FEFF 		bl	ADC_DelSig_StartConvert
 448              	.LVL51:
 160:main.c        ****     
 449              		.loc 1 160 0
 450 003e FFF7FEFF 		bl	Timer_ISR_Start
 451              	.LVL52:
 452              	.L31:
 169:main.c        ****             dataReady = false;
 453              		.loc 1 169 0
 454 0042 444B     		ldr	r3, .L45+12
 455 0044 1B79     		ldrb	r3, [r3, #4]	@ zero_extendqisi2
 456 0046 13F0FF0F 		tst	r3, #255
 457 004a FAD0     		beq	.L31
 458              	.LBB7:
 170:main.c        ****             packetsize = 0;
 459              		.loc 1 170 0
 460 004c 0025     		movs	r5, #0
 461 004e 414B     		ldr	r3, .L45+12
 462 0050 1D71     		strb	r5, [r3, #4]
 463              	.LVL53:
 464              	.LBB8:
 173:main.c        ****                 /*Converting the count value read by ADC to float32 voltage*/
 465              		.loc 1 173 0
 466 0052 2C46     		mov	r4, r5
 467              	.LBE8:
 172:main.c        ****             for (uint8_t i = 0; i < ADC_NUM_CHANNELS; i++) {
 468              		.loc 1 172 0
 469 0054 0A27     		movs	r7, #10
 470              	.LBB10:
 173:main.c        ****                 /*Converting the count value read by ADC to float32 voltage*/
 471              		.loc 1 173 0
 472 0056 6EE0     		b	.L32
ARM GAS  C:\Users\29928\AppData\Local\Temp\cc8d3aqE.s 			page 16


 473              	.LVL54:
 474              	.L37:
 475              	.LBB9:
 176:main.c        ****                 UART_Debug_PutString(buf_2);   // or *_PutString(buf) if null-terminated
 476              		.loc 1 176 0
 477 0058 2646     		mov	r6, r4
 478 005a DFF81881 		ldr	r8, .L45+44
 479 005e 38F81430 		ldrh	r3, [r8, r4, lsl #1]
 480 0062 1BB2     		sxth	r3, r3
 481 0064 0093     		str	r3, [sp]
 482 0066 2346     		mov	r3, r4
 483 0068 3C4A     		ldr	r2, .L45+20
 484 006a 4021     		movs	r1, #64
 485 006c 02A8     		add	r0, sp, #8
 486 006e FFF7FEFF 		bl	snprintf
 487              	.LVL55:
 177:main.c        ****                 UART_Debug_PutString("\r\n");   // or *_PutString(buf) if null-terminated
 488              		.loc 1 177 0
 489 0072 02A8     		add	r0, sp, #8
 490 0074 FFF7FEFF 		bl	UART_Debug_PutString
 491              	.LVL56:
 178:main.c        ****                 float32 ADCVolts = /*(3.3/2.739) *  */ ADC_TS410_CountsTo_Volts(ADCData[i]);
 492              		.loc 1 178 0
 493 0078 3948     		ldr	r0, .L45+24
 494 007a FFF7FEFF 		bl	UART_Debug_PutString
 495              	.LVL57:
 179:main.c        ****                 /*Check if data flucaute a lot, if so send warning OPCODE, currently it only checks
 496              		.loc 1 179 0
 497 007e 38F81400 		ldrh	r0, [r8, r4, lsl #1]
 498 0082 00B2     		sxth	r0, r0
 499 0084 FFF7FEFF 		bl	ADC_TS410_CountsTo_Volts
 500              	.LVL58:
 501 0088 8246     		mov	r10, r0
 502              	.LVL59:
 181:main.c        ****                     if(i == ADC_NUM_CHANNELS){
 503              		.loc 1 181 0
 504 008a 324B     		ldr	r3, .L45+12
 505 008c 5B79     		ldrb	r3, [r3, #5]	@ zero_extendqisi2
 506 008e 13F0FF0F 		tst	r3, #255
 507 0092 25D0     		beq	.L33
 182:main.c        ****                         checkData = false;
 508              		.loc 1 182 0
 509 0094 042C     		cmp	r4, #4
 510 0096 23D1     		bne	.L33
 183:main.c        ****                         if(savedADC!=0 && (savedADC >= ADCVolts + changeToleranceInterval || savedA
 511              		.loc 1 183 0
 512 0098 2E4B     		ldr	r3, .L45+12
 513 009a 0022     		movs	r2, #0
 514 009c 5A71     		strb	r2, [r3, #5]
 184:main.c        ****                             opcode = 0xF3;
 515              		.loc 1 184 0
 516 009e D3F80C01 		ldr	r0, [r3, #268]	@ float
 517              	.LVL60:
 518 00a2 0021     		movs	r1, #0
 519 00a4 FFF7FEFF 		bl	__aeabi_fcmpeq
 520              	.LVL61:
 521 00a8 B8B9     		cbnz	r0, .L34
ARM GAS  C:\Users\29928\AppData\Local\Temp\cc8d3aqE.s 			page 17


 184:main.c        ****                             opcode = 0xF3;
 522              		.loc 1 184 0 is_stmt 0 discriminator 1
 523 00aa 2E49     		ldr	r1, .L45+28
 524 00ac 5046     		mov	r0, r10
 525 00ae FFF7FEFF 		bl	__aeabi_fadd
 526              	.LVL62:
 527 00b2 284B     		ldr	r3, .L45+12
 528 00b4 D3F80C11 		ldr	r1, [r3, #268]	@ float
 529 00b8 FFF7FEFF 		bl	__aeabi_fcmple
 530              	.LVL63:
 531 00bc 50B9     		cbnz	r0, .L39
 184:main.c        ****                             opcode = 0xF3;
 532              		.loc 1 184 0 discriminator 2
 533 00be 2949     		ldr	r1, .L45+28
 534 00c0 5046     		mov	r0, r10
 535 00c2 FFF7FEFF 		bl	__aeabi_fsub
 536              	.LVL64:
 537 00c6 234B     		ldr	r3, .L45+12
 538 00c8 D3F80C11 		ldr	r1, [r3, #268]	@ float
 539 00cc FFF7FEFF 		bl	__aeabi_fcmpge
 540              	.LVL65:
 541 00d0 10B9     		cbnz	r0, .L40
 542 00d2 02E0     		b	.L34
 543              	.L39:
 185:main.c        ****                         }
 544              		.loc 1 185 0 is_stmt 1
 545 00d4 F327     		movs	r7, #243
 546              	.LVL66:
 547 00d6 00E0     		b	.L34
 548              	.LVL67:
 549              	.L40:
 550 00d8 F327     		movs	r7, #243
 551              	.LVL68:
 552              	.L34:
 187:main.c        ****                     }
 553              		.loc 1 187 0
 554 00da 1E4B     		ldr	r3, .L45+12
 555 00dc C3F80CA1 		str	r10, [r3, #268]	@ float
 556              	.L33:
 191:main.c        ****                     opcode = unreasonableADCValueWarnCodex;
 557              		.loc 1 191 0
 558 00e0 5046     		mov	r0, r10
 559 00e2 FFF7FEFF 		bl	__aeabi_f2d
 560              	.LVL69:
 561 00e6 8046     		mov	r8, r0
 562 00e8 8946     		mov	r9, r1
 563 00ea 17A3     		adr	r3, .L45
 564 00ec D3E90023 		ldrd	r2, [r3]
 565 00f0 FFF7FEFF 		bl	__aeabi_dcmpgt
 566              	.LVL70:
 567 00f4 28B9     		cbnz	r0, .L41
 191:main.c        ****                     opcode = unreasonableADCValueWarnCodex;
 568              		.loc 1 191 0 is_stmt 0 discriminator 1
 569 00f6 1C49     		ldr	r1, .L45+32
 570 00f8 5046     		mov	r0, r10
 571 00fa FFF7FEFF 		bl	__aeabi_fcmplt
 572              	.LVL71:
ARM GAS  C:\Users\29928\AppData\Local\Temp\cc8d3aqE.s 			page 18


 573 00fe 10B9     		cbnz	r0, .L42
 574 0100 02E0     		b	.L36
 575              	.L41:
 192:main.c        ****                 }
 576              		.loc 1 192 0 is_stmt 1
 577 0102 F227     		movs	r7, #242
 578              	.LVL72:
 579 0104 00E0     		b	.L36
 580              	.LVL73:
 581              	.L42:
 582 0106 F227     		movs	r7, #242
 583              	.LVL74:
 584              	.L36:
 195:main.c        ****                 packetsize += sizeof(float32);
 585              		.loc 1 195 0 discriminator 2
 586 0108 1849     		ldr	r1, .L45+36
 587 010a 2944     		add	r1, r1, r5
 588 010c 5046     		mov	r0, r10
 589 010e FFF7FEFF 		bl	float2Bytes
 590              	.LVL75:
 196:main.c        ****                 //printf("\r\nHoho\r\n");
 591              		.loc 1 196 0 discriminator 2
 592 0112 0435     		adds	r5, r5, #4
 593              	.LVL76:
 594 0114 EDB2     		uxtb	r5, r5
 595              	.LVL77:
 200:main.c        ****                 UART_Debug_PutString(buf);   // or *_PutString(buf) if null-terminated
 596              		.loc 1 200 0 discriminator 2
 597 0116 CDE90089 		strd	r8, [sp]
 598 011a 3346     		mov	r3, r6
 599 011c 144A     		ldr	r2, .L45+40
 600 011e 4021     		movs	r1, #64
 601 0120 12A8     		add	r0, sp, #72
 602 0122 FFF7FEFF 		bl	snprintf
 603              	.LVL78:
 201:main.c        ****                 UART_Debug_PutString("\r\n");   // or *_PutString(buf) if null-terminated
 604              		.loc 1 201 0 discriminator 2
 605 0126 12A8     		add	r0, sp, #72
 606 0128 FFF7FEFF 		bl	UART_Debug_PutString
 607              	.LVL79:
 202:main.c        ****                 //printf("ADC %d: %f, ", i, ADCVolts);
 608              		.loc 1 202 0 discriminator 2
 609 012c 0C48     		ldr	r0, .L45+24
 610 012e FFF7FEFF 		bl	UART_Debug_PutString
 611              	.LVL80:
 612              	.LBE9:
 173:main.c        ****                 /*Converting the count value read by ADC to float32 voltage*/
 613              		.loc 1 173 0 discriminator 2
 614 0132 0134     		adds	r4, r4, #1
 615              	.LVL81:
 616 0134 E4B2     		uxtb	r4, r4
 617              	.LVL82:
 618              	.L32:
 173:main.c        ****                 /*Converting the count value read by ADC to float32 voltage*/
 619              		.loc 1 173 0 is_stmt 0 discriminator 1
 620 0136 032C     		cmp	r4, #3
 621 0138 8ED9     		bls	.L37
ARM GAS  C:\Users\29928\AppData\Local\Temp\cc8d3aqE.s 			page 19


 622              	.LBE10:
 207:main.c        ****         }
 623              		.loc 1 207 0 is_stmt 1
 624 013a 2A46     		mov	r2, r5
 625 013c 0B49     		ldr	r1, .L45+36
 626 013e 3846     		mov	r0, r7
 627 0140 FFF7FEFF 		bl	wrap_data
 628              	.LVL83:
 629 0144 7DE7     		b	.L31
 630              	.L46:
 631 0146 00BF     		.align	3
 632              	.L45:
 633 0148 66666633 		.word	862348902
 634 014c 33330B40 		.word	1074475827
 635 0150 00000000 		.word	.LC0
 636 0154 00000000 		.word	.LANCHOR0
 637 0158 00000000 		.word	Timer_Interrupt_Handler
 638 015c 10000000 		.word	.LC1
 639 0160 30000000 		.word	.LC2
 640 0164 9A99993E 		.word	1050253722
 641 0168 CDCCCCBD 		.word	-1110651699
 642 016c 10010000 		.word	.LANCHOR0+272
 643 0170 34000000 		.word	.LC3
 644 0174 00000000 		.word	ADCData
 645              	.LBE7:
 646              		.cfi_endproc
 647              	.LFE65:
 648              		.size	main, .-main
 649              		.global	timerCountDataCompare
 650              		.global	timerCount
 651              		.comm	ADCData,8,4
 652              		.section	.rodata
 653              		.align	2
 654              		.set	.LANCHOR1,. + 0
 655              		.type	crcTable, %object
 656              		.size	crcTable, 256
 657              	crcTable:
 658 0000 00       		.byte	0
 659 0001 07       		.byte	7
 660 0002 0E       		.byte	14
 661 0003 09       		.byte	9
 662 0004 1C       		.byte	28
 663 0005 1B       		.byte	27
 664 0006 12       		.byte	18
 665 0007 15       		.byte	21
 666 0008 38       		.byte	56
 667 0009 3F       		.byte	63
 668 000a 36       		.byte	54
 669 000b 31       		.byte	49
 670 000c 24       		.byte	36
 671 000d 23       		.byte	35
 672 000e 2A       		.byte	42
 673 000f 2D       		.byte	45
 674 0010 70       		.byte	112
 675 0011 77       		.byte	119
 676 0012 7E       		.byte	126
 677 0013 79       		.byte	121
ARM GAS  C:\Users\29928\AppData\Local\Temp\cc8d3aqE.s 			page 20


 678 0014 6C       		.byte	108
 679 0015 6B       		.byte	107
 680 0016 62       		.byte	98
 681 0017 65       		.byte	101
 682 0018 48       		.byte	72
 683 0019 4F       		.byte	79
 684 001a 46       		.byte	70
 685 001b 41       		.byte	65
 686 001c 54       		.byte	84
 687 001d 53       		.byte	83
 688 001e 5A       		.byte	90
 689 001f 5D       		.byte	93
 690 0020 E0       		.byte	-32
 691 0021 E7       		.byte	-25
 692 0022 EE       		.byte	-18
 693 0023 E9       		.byte	-23
 694 0024 FC       		.byte	-4
 695 0025 FB       		.byte	-5
 696 0026 F2       		.byte	-14
 697 0027 F5       		.byte	-11
 698 0028 D8       		.byte	-40
 699 0029 DF       		.byte	-33
 700 002a D6       		.byte	-42
 701 002b D1       		.byte	-47
 702 002c C4       		.byte	-60
 703 002d C3       		.byte	-61
 704 002e CA       		.byte	-54
 705 002f CD       		.byte	-51
 706 0030 90       		.byte	-112
 707 0031 97       		.byte	-105
 708 0032 9E       		.byte	-98
 709 0033 99       		.byte	-103
 710 0034 8C       		.byte	-116
 711 0035 8B       		.byte	-117
 712 0036 82       		.byte	-126
 713 0037 85       		.byte	-123
 714 0038 A8       		.byte	-88
 715 0039 AF       		.byte	-81
 716 003a A6       		.byte	-90
 717 003b A1       		.byte	-95
 718 003c B4       		.byte	-76
 719 003d B3       		.byte	-77
 720 003e BA       		.byte	-70
 721 003f BD       		.byte	-67
 722 0040 C7       		.byte	-57
 723 0041 C0       		.byte	-64
 724 0042 C9       		.byte	-55
 725 0043 CE       		.byte	-50
 726 0044 DB       		.byte	-37
 727 0045 DC       		.byte	-36
 728 0046 D5       		.byte	-43
 729 0047 D2       		.byte	-46
 730 0048 FF       		.byte	-1
 731 0049 F8       		.byte	-8
 732 004a F1       		.byte	-15
 733 004b F6       		.byte	-10
 734 004c E3       		.byte	-29
ARM GAS  C:\Users\29928\AppData\Local\Temp\cc8d3aqE.s 			page 21


 735 004d E4       		.byte	-28
 736 004e ED       		.byte	-19
 737 004f EA       		.byte	-22
 738 0050 B7       		.byte	-73
 739 0051 B0       		.byte	-80
 740 0052 B9       		.byte	-71
 741 0053 BE       		.byte	-66
 742 0054 AB       		.byte	-85
 743 0055 AC       		.byte	-84
 744 0056 A5       		.byte	-91
 745 0057 A2       		.byte	-94
 746 0058 8F       		.byte	-113
 747 0059 88       		.byte	-120
 748 005a 81       		.byte	-127
 749 005b 86       		.byte	-122
 750 005c 93       		.byte	-109
 751 005d 94       		.byte	-108
 752 005e 9D       		.byte	-99
 753 005f 9A       		.byte	-102
 754 0060 27       		.byte	39
 755 0061 20       		.byte	32
 756 0062 29       		.byte	41
 757 0063 2E       		.byte	46
 758 0064 3B       		.byte	59
 759 0065 3C       		.byte	60
 760 0066 35       		.byte	53
 761 0067 32       		.byte	50
 762 0068 1F       		.byte	31
 763 0069 18       		.byte	24
 764 006a 11       		.byte	17
 765 006b 16       		.byte	22
 766 006c 03       		.byte	3
 767 006d 04       		.byte	4
 768 006e 0D       		.byte	13
 769 006f 0A       		.byte	10
 770 0070 57       		.byte	87
 771 0071 50       		.byte	80
 772 0072 59       		.byte	89
 773 0073 5E       		.byte	94
 774 0074 4B       		.byte	75
 775 0075 4C       		.byte	76
 776 0076 45       		.byte	69
 777 0077 42       		.byte	66
 778 0078 6F       		.byte	111
 779 0079 68       		.byte	104
 780 007a 61       		.byte	97
 781 007b 66       		.byte	102
 782 007c 73       		.byte	115
 783 007d 74       		.byte	116
 784 007e 7D       		.byte	125
 785 007f 7A       		.byte	122
 786 0080 89       		.byte	-119
 787 0081 8E       		.byte	-114
 788 0082 87       		.byte	-121
 789 0083 80       		.byte	-128
 790 0084 95       		.byte	-107
 791 0085 92       		.byte	-110
ARM GAS  C:\Users\29928\AppData\Local\Temp\cc8d3aqE.s 			page 22


 792 0086 9B       		.byte	-101
 793 0087 9C       		.byte	-100
 794 0088 B1       		.byte	-79
 795 0089 B6       		.byte	-74
 796 008a BF       		.byte	-65
 797 008b B8       		.byte	-72
 798 008c AD       		.byte	-83
 799 008d AA       		.byte	-86
 800 008e A3       		.byte	-93
 801 008f A4       		.byte	-92
 802 0090 F9       		.byte	-7
 803 0091 FE       		.byte	-2
 804 0092 F7       		.byte	-9
 805 0093 F0       		.byte	-16
 806 0094 E5       		.byte	-27
 807 0095 E2       		.byte	-30
 808 0096 EB       		.byte	-21
 809 0097 EC       		.byte	-20
 810 0098 C1       		.byte	-63
 811 0099 C6       		.byte	-58
 812 009a CF       		.byte	-49
 813 009b C8       		.byte	-56
 814 009c DD       		.byte	-35
 815 009d DA       		.byte	-38
 816 009e D3       		.byte	-45
 817 009f D4       		.byte	-44
 818 00a0 69       		.byte	105
 819 00a1 6E       		.byte	110
 820 00a2 67       		.byte	103
 821 00a3 60       		.byte	96
 822 00a4 75       		.byte	117
 823 00a5 72       		.byte	114
 824 00a6 7B       		.byte	123
 825 00a7 7C       		.byte	124
 826 00a8 51       		.byte	81
 827 00a9 56       		.byte	86
 828 00aa 5F       		.byte	95
 829 00ab 58       		.byte	88
 830 00ac 4D       		.byte	77
 831 00ad 4A       		.byte	74
 832 00ae 43       		.byte	67
 833 00af 44       		.byte	68
 834 00b0 19       		.byte	25
 835 00b1 1E       		.byte	30
 836 00b2 17       		.byte	23
 837 00b3 10       		.byte	16
 838 00b4 05       		.byte	5
 839 00b5 02       		.byte	2
 840 00b6 0B       		.byte	11
 841 00b7 0C       		.byte	12
 842 00b8 21       		.byte	33
 843 00b9 26       		.byte	38
 844 00ba 2F       		.byte	47
 845 00bb 28       		.byte	40
 846 00bc 3D       		.byte	61
 847 00bd 3A       		.byte	58
 848 00be 33       		.byte	51
ARM GAS  C:\Users\29928\AppData\Local\Temp\cc8d3aqE.s 			page 23


 849 00bf 34       		.byte	52
 850 00c0 4E       		.byte	78
 851 00c1 49       		.byte	73
 852 00c2 40       		.byte	64
 853 00c3 47       		.byte	71
 854 00c4 52       		.byte	82
 855 00c5 55       		.byte	85
 856 00c6 5C       		.byte	92
 857 00c7 5B       		.byte	91
 858 00c8 76       		.byte	118
 859 00c9 71       		.byte	113
 860 00ca 78       		.byte	120
 861 00cb 7F       		.byte	127
 862 00cc 6A       		.byte	106
 863 00cd 6D       		.byte	109
 864 00ce 64       		.byte	100
 865 00cf 63       		.byte	99
 866 00d0 3E       		.byte	62
 867 00d1 39       		.byte	57
 868 00d2 30       		.byte	48
 869 00d3 37       		.byte	55
 870 00d4 22       		.byte	34
 871 00d5 25       		.byte	37
 872 00d6 2C       		.byte	44
 873 00d7 2B       		.byte	43
 874 00d8 06       		.byte	6
 875 00d9 01       		.byte	1
 876 00da 08       		.byte	8
 877 00db 0F       		.byte	15
 878 00dc 1A       		.byte	26
 879 00dd 1D       		.byte	29
 880 00de 14       		.byte	20
 881 00df 13       		.byte	19
 882 00e0 AE       		.byte	-82
 883 00e1 A9       		.byte	-87
 884 00e2 A0       		.byte	-96
 885 00e3 A7       		.byte	-89
 886 00e4 B2       		.byte	-78
 887 00e5 B5       		.byte	-75
 888 00e6 BC       		.byte	-68
 889 00e7 BB       		.byte	-69
 890 00e8 96       		.byte	-106
 891 00e9 91       		.byte	-111
 892 00ea 98       		.byte	-104
 893 00eb 9F       		.byte	-97
 894 00ec 8A       		.byte	-118
 895 00ed 8D       		.byte	-115
 896 00ee 84       		.byte	-124
 897 00ef 83       		.byte	-125
 898 00f0 DE       		.byte	-34
 899 00f1 D9       		.byte	-39
 900 00f2 D0       		.byte	-48
 901 00f3 D7       		.byte	-41
 902 00f4 C2       		.byte	-62
 903 00f5 C5       		.byte	-59
 904 00f6 CC       		.byte	-52
 905 00f7 CB       		.byte	-53
ARM GAS  C:\Users\29928\AppData\Local\Temp\cc8d3aqE.s 			page 24


 906 00f8 E6       		.byte	-26
 907 00f9 E1       		.byte	-31
 908 00fa E8       		.byte	-24
 909 00fb EF       		.byte	-17
 910 00fc FA       		.byte	-6
 911 00fd FD       		.byte	-3
 912 00fe F4       		.byte	-12
 913 00ff F3       		.byte	-13
 914              		.section	.rodata.str1.4,"aMS",%progbits,1
 915              		.align	2
 916              	.LC0:
 917 0000 48656C6C 		.ascii	"Hello World!\015\012\000"
 917      6F20576F 
 917      726C6421 
 917      0D0A00
 918 000f 00       		.space	1
 919              	.LC1:
 920 0010 4F726967 		.ascii	"Original Channel %d: V=%d V\015\012\000"
 920      696E616C 
 920      20436861 
 920      6E6E656C 
 920      2025643A 
 921 002e 0000     		.space	2
 922              	.LC2:
 923 0030 0D0A00   		.ascii	"\015\012\000"
 924 0033 00       		.space	1
 925              	.LC3:
 926 0034 4368616E 		.ascii	"Channel %d: V=%.3f V\015\012\000"
 926      6E656C20 
 926      25643A20 
 926      563D252E 
 926      33662056 
 927              		.bss
 928              		.align	2
 929              		.set	.LANCHOR0,. + 0
 930              		.type	timerCount, %object
 931              		.size	timerCount, 2
 932              	timerCount:
 933 0000 0000     		.space	2
 934              		.type	timerCountDataCompare, %object
 935              		.size	timerCountDataCompare, 2
 936              	timerCountDataCompare:
 937 0002 0000     		.space	2
 938              		.type	dataReady, %object
 939              		.size	dataReady, 1
 940              	dataReady:
 941 0004 00       		.space	1
 942              		.type	checkData, %object
 943              		.size	checkData, 1
 944              	checkData:
 945 0005 00       		.space	1
 946 0006 0000     		.space	2
 947              		.type	RPI_TX_Buffer, %object
 948              		.size	RPI_TX_Buffer, 258
 949              	RPI_TX_Buffer:
 950 0008 00000000 		.space	258
 950      00000000 
ARM GAS  C:\Users\29928\AppData\Local\Temp\cc8d3aqE.s 			page 25


 950      00000000 
 950      00000000 
 950      00000000 
 951 010a 0000     		.space	2
 952              		.type	savedADC, %object
 953              		.size	savedADC, 4
 954              	savedADC:
 955 010c 00000000 		.space	4
 956              		.type	packet, %object
 957              		.size	packet, 255
 958              	packet:
 959 0110 00000000 		.space	255
 959      00000000 
 959      00000000 
 959      00000000 
 959      00000000 
 960              		.text
 961              	.Letext0:
 962              		.file 2 "c:\\program files (x86)\\cypress\\psoc creator\\4.4\\psoc creator\\import\\gnu\\arm\\5.4.
 963              		.file 3 "c:\\program files (x86)\\cypress\\psoc creator\\4.4\\psoc creator\\import\\gnu\\arm\\5.4.
 964              		.file 4 "Generated_Source\\PSoC5/cytypes.h"
 965              		.file 5 "Generated_Source\\PSoC5/core_cm3.h"
 966              		.file 6 "Generated_Source\\PSoC5/ADC_TS410.h"
 967              		.file 7 "Generated_Source\\PSoC5/CyLib.h"
 968              		.file 8 "Generated_Source\\PSoC5/Timer_ISR.h"
 969              		.file 9 "Generated_Source\\PSoC5/USER_LED.h"
 970              		.file 10 "Generated_Source\\PSoC5/UART_RPI.h"
 971              		.file 11 "c:\\program files (x86)\\cypress\\psoc creator\\4.4\\psoc creator\\import\\gnu\\arm\\5.4
 972              		.file 12 "Generated_Source\\PSoC5/UART_Debug.h"
 973              		.file 13 "Generated_Source\\PSoC5/UART_OEM.h"
 974              		.file 14 "Generated_Source\\PSoC5/ADC_DelSig.h"
 975              		.file 15 "Generated_Source\\PSoC5/Timer_Interrupt.h"