ARM GAS  C:\Users\29928\AppData\Local\Temp\cctTW8Bq.s 			page 1


   1              		.syntax unified
   2              		.cpu cortex-m3
   3              		.fpu softvfp
   4              		.eabi_attribute 20, 1
   5              		.eabi_attribute 21, 1
   6              		.eabi_attribute 23, 3
   7              		.eabi_attribute 24, 1
   8              		.eabi_attribute 25, 1
   9              		.eabi_attribute 26, 1
  10              		.eabi_attribute 30, 1
  11              		.eabi_attribute 34, 1
  12              		.eabi_attribute 18, 4
  13              		.thumb
  14              		.syntax unified
  15              		.file	"Pressure_Transducer.c"
  16              		.text
  17              	.Ltext0:
  18              		.cfi_sections	.debug_frame
  19              		.section	.text.init_pressure_sensors,"ax",%progbits
  20              		.align	2
  21              		.global	init_pressure_sensors
  22              		.thumb
  23              		.thumb_func
  24              		.type	init_pressure_sensors, %function
  25              	init_pressure_sensors:
  26              	.LFB63:
  27              		.file 1 "Pressure_Transducer.c"
   1:Pressure_Transducer.c **** /* ========================================
   2:Pressure_Transducer.c ****  *
   3:Pressure_Transducer.c ****  * Copyright Carnegie Mellon University
   4:Pressure_Transducer.c ****  * All Rights Reserved
   5:Pressure_Transducer.c ****  * UNPUBLISHED, LICENSED SOFTWARE.
   6:Pressure_Transducer.c ****  *
   7:Pressure_Transducer.c ****  * Driver for ICU medical Transpac IV disposable pressure transducer system
   8:Pressure_Transducer.c ****  * Pressure sensor: differential ADC input
   9:Pressure_Transducer.c ****  *
  10:Pressure_Transducer.c ****  * ========================================
  11:Pressure_Transducer.c **** */
  12:Pressure_Transducer.c **** 
  13:Pressure_Transducer.c **** #include "Pressure_Transducer.h"
  14:Pressure_Transducer.c **** 
  15:Pressure_Transducer.c **** void init_pressure_sensors(){
  28              		.loc 1 15 0
  29              		.cfi_startproc
  30              		@ args = 0, pretend = 0, frame = 0
  31              		@ frame_needed = 0, uses_anonymous_args = 0
  32 0000 08B5     		push	{r3, lr}
  33              		.cfi_def_cfa_offset 8
  34              		.cfi_offset 3, -8
  35              		.cfi_offset 14, -4
  16:Pressure_Transducer.c ****     ADC_DelSig_Start();
  36              		.loc 1 16 0
  37 0002 FFF7FEFF 		bl	ADC_DelSig_Start
  38              	.LVL0:
  17:Pressure_Transducer.c ****     ADC_DelSig_StartConvert();
  39              		.loc 1 17 0
  40 0006 FFF7FEFF 		bl	ADC_DelSig_StartConvert
ARM GAS  C:\Users\29928\AppData\Local\Temp\cctTW8Bq.s 			page 2


  41              	.LVL1:
  18:Pressure_Transducer.c ****     AMux_Start();
  42              		.loc 1 18 0
  43 000a FFF7FEFF 		bl	AMux_Start
  44              	.LVL2:
  45 000e 08BD     		pop	{r3, pc}
  46              		.cfi_endproc
  47              	.LFE63:
  48              		.size	init_pressure_sensors, .-init_pressure_sensors
  49              		.section	.text.switch_multiplexer,"ax",%progbits
  50              		.align	2
  51              		.global	switch_multiplexer
  52              		.thumb
  53              		.thumb_func
  54              		.type	switch_multiplexer, %function
  55              	switch_multiplexer:
  56              	.LFB64:
  19:Pressure_Transducer.c **** }
  20:Pressure_Transducer.c **** 
  21:Pressure_Transducer.c **** void switch_multiplexer(uint16_t channel){
  57              		.loc 1 21 0
  58              		.cfi_startproc
  59              		@ args = 0, pretend = 0, frame = 0
  60              		@ frame_needed = 0, uses_anonymous_args = 0
  61              	.LVL3:
  62 0000 10B5     		push	{r4, lr}
  63              		.cfi_def_cfa_offset 8
  64              		.cfi_offset 4, -8
  65              		.cfi_offset 14, -4
  66 0002 0446     		mov	r4, r0
  22:Pressure_Transducer.c ****     // stop conversion before switching Mux
  23:Pressure_Transducer.c ****     ADC_DelSig_StopConvert();
  67              		.loc 1 23 0
  68 0004 FFF7FEFF 		bl	ADC_DelSig_StopConvert
  69              	.LVL4:
  24:Pressure_Transducer.c ****     
  25:Pressure_Transducer.c ****     // only use this for 2 channels
  26:Pressure_Transducer.c ****     AMux_FastSelect(channel);
  70              		.loc 1 26 0
  71 0008 E0B2     		uxtb	r0, r4
  72 000a FFF7FEFF 		bl	AMux_FastSelect
  73              	.LVL5:
  27:Pressure_Transducer.c ****     CyDelay(1u); //Delay to leave enough time for ADC conversion
  74              		.loc 1 27 0
  75 000e 0120     		movs	r0, #1
  76 0010 FFF7FEFF 		bl	CyDelay
  77              	.LVL6:
  28:Pressure_Transducer.c ****     ADC_DelSig_StartConvert();
  78              		.loc 1 28 0
  79 0014 FFF7FEFF 		bl	ADC_DelSig_StartConvert
  80              	.LVL7:
  81 0018 10BD     		pop	{r4, pc}
  82              		.cfi_endproc
  83              	.LFE64:
  84              		.size	switch_multiplexer, .-switch_multiplexer
  85 001a 00BF     		.section	.text.read_pressure,"ax",%progbits
  86              		.align	2
ARM GAS  C:\Users\29928\AppData\Local\Temp\cctTW8Bq.s 			page 3


  87              		.global	read_pressure
  88              		.thumb
  89              		.thumb_func
  90              		.type	read_pressure, %function
  91              	read_pressure:
  92              	.LFB65:
  29:Pressure_Transducer.c **** }
  30:Pressure_Transducer.c **** 
  31:Pressure_Transducer.c **** uint16_t read_pressure(uint16_t MuxSelect){
  93              		.loc 1 31 0
  94              		.cfi_startproc
  95              		@ args = 0, pretend = 0, frame = 0
  96              		@ frame_needed = 0, uses_anonymous_args = 0
  97              	.LVL8:
  98 0000 10B5     		push	{r4, lr}
  99              		.cfi_def_cfa_offset 8
 100              		.cfi_offset 4, -8
 101              		.cfi_offset 14, -4
  32:Pressure_Transducer.c ****     uint16_t pressure_reading;
  33:Pressure_Transducer.c ****     if(MuxSelect==AMux_CHANNEL_0){
 102              		.loc 1 33 0
 103 0002 30B9     		cbnz	r0, .L6
  34:Pressure_Transducer.c ****         pressure_reading = ADC_DelSig_Read16();
 104              		.loc 1 34 0
 105 0004 FFF7FEFF 		bl	ADC_DelSig_Read16
 106              	.LVL9:
 107 0008 84B2     		uxth	r4, r0
 108              	.LVL10:
  35:Pressure_Transducer.c ****         // switch Mux to channel 1
  36:Pressure_Transducer.c ****         switch_multiplexer(AMux_CHANNEL_1);
 109              		.loc 1 36 0
 110 000a 0120     		movs	r0, #1
 111 000c FFF7FEFF 		bl	switch_multiplexer
 112              	.LVL11:
 113 0010 05E0     		b	.L7
 114              	.LVL12:
 115              	.L6:
  37:Pressure_Transducer.c ****     }
  38:Pressure_Transducer.c ****     else{
  39:Pressure_Transducer.c ****         pressure_reading = ADC_DelSig_Read16();
 116              		.loc 1 39 0
 117 0012 FFF7FEFF 		bl	ADC_DelSig_Read16
 118              	.LVL13:
 119 0016 84B2     		uxth	r4, r0
 120              	.LVL14:
  40:Pressure_Transducer.c ****         // switch Mux to channel 0
  41:Pressure_Transducer.c ****         switch_multiplexer(AMux_CHANNEL_0);
 121              		.loc 1 41 0
 122 0018 0020     		movs	r0, #0
 123 001a FFF7FEFF 		bl	switch_multiplexer
 124              	.LVL15:
 125              	.L7:
  42:Pressure_Transducer.c ****     }
  43:Pressure_Transducer.c ****     return pressure_reading;
  44:Pressure_Transducer.c **** }
 126              		.loc 1 44 0
 127 001e 2046     		mov	r0, r4
ARM GAS  C:\Users\29928\AppData\Local\Temp\cctTW8Bq.s 			page 4


 128 0020 10BD     		pop	{r4, pc}
 129              		.cfi_endproc
 130              	.LFE65:
 131              		.size	read_pressure, .-read_pressure
 132 0022 00BF     		.text
 133              	.Letext0:
 134              		.file 2 "c:\\program files (x86)\\cypress\\psoc creator\\4.4\\psoc creator\\import\\gnu\\arm\\5.4.
 135              		.file 3 "c:\\program files (x86)\\cypress\\psoc creator\\4.4\\psoc creator\\import\\gnu\\arm\\5.4.
 136              		.file 4 "Generated_Source\\PSoC5/ADC_DelSig.h"
 137              		.file 5 "Generated_Source\\PSoC5/AMux.h"
 138              		.file 6 "Generated_Source\\PSoC5/CyLib.h"
 139              		.file 7 "Generated_Source\\PSoC5/core_cm3.h"